
kernel/kernel:     file format elf64-littleriscv


Disassembly of section .text:

0000000080000000 <_entry>:
    80000000:	00009117          	auipc	sp,0x9
    80000004:	8b013103          	ld	sp,-1872(sp) # 800088b0 <_GLOBAL_OFFSET_TABLE_+0x8>
    80000008:	6505                	lui	a0,0x1
    8000000a:	f14025f3          	csrr	a1,mhartid
    8000000e:	0585                	addi	a1,a1,1
    80000010:	02b50533          	mul	a0,a0,a1
    80000014:	912a                	add	sp,sp,a0
    80000016:	076000ef          	jal	ra,8000008c <start>

000000008000001a <spin>:
    8000001a:	a001                	j	8000001a <spin>

000000008000001c <timerinit>:
// at timervec in kernelvec.S,
// which turns them into software interrupts for
// devintr() in trap.c.
void
timerinit()
{
    8000001c:	1141                	addi	sp,sp,-16
    8000001e:	e422                	sd	s0,8(sp)
    80000020:	0800                	addi	s0,sp,16
// which hart (core) is this?
static inline uint64
r_mhartid()
{
  uint64 x;
  asm volatile("csrr %0, mhartid" : "=r" (x) );
    80000022:	f14027f3          	csrr	a5,mhartid
  // each CPU has a separate source of timer interrupts.
  int id = r_mhartid();
    80000026:	0007859b          	sext.w	a1,a5

  // ask the CLINT for a timer interrupt.
  int interval = 1000000; // cycles; about 1/10th second in qemu.
  *(uint64*)CLINT_MTIMECMP(id) = *(uint64*)CLINT_MTIME + interval;
    8000002a:	0037979b          	slliw	a5,a5,0x3
    8000002e:	02004737          	lui	a4,0x2004
    80000032:	97ba                	add	a5,a5,a4
    80000034:	0200c737          	lui	a4,0x200c
    80000038:	ff873703          	ld	a4,-8(a4) # 200bff8 <_entry-0x7dff4008>
    8000003c:	000f4637          	lui	a2,0xf4
    80000040:	24060613          	addi	a2,a2,576 # f4240 <_entry-0x7ff0bdc0>
    80000044:	9732                	add	a4,a4,a2
    80000046:	e398                	sd	a4,0(a5)

  // prepare information in scratch[] for timervec.
  // scratch[0..2] : space for timervec to save registers.
  // scratch[3] : address of CLINT MTIMECMP register.
  // scratch[4] : desired interval (in cycles) between timer interrupts.
  uint64 *scratch = &timer_scratch[id][0];
    80000048:	00259693          	slli	a3,a1,0x2
    8000004c:	96ae                	add	a3,a3,a1
    8000004e:	068e                	slli	a3,a3,0x3
    80000050:	00009717          	auipc	a4,0x9
    80000054:	8c070713          	addi	a4,a4,-1856 # 80008910 <timer_scratch>
    80000058:	9736                	add	a4,a4,a3
  scratch[3] = CLINT_MTIMECMP(id);
    8000005a:	ef1c                	sd	a5,24(a4)
  scratch[4] = interval;
    8000005c:	f310                	sd	a2,32(a4)
}

static inline void 
w_mscratch(uint64 x)
{
  asm volatile("csrw mscratch, %0" : : "r" (x));
    8000005e:	34071073          	csrw	mscratch,a4
  asm volatile("csrw mtvec, %0" : : "r" (x));
    80000062:	00006797          	auipc	a5,0x6
    80000066:	3ae78793          	addi	a5,a5,942 # 80006410 <timervec>
    8000006a:	30579073          	csrw	mtvec,a5
  asm volatile("csrr %0, mstatus" : "=r" (x) );
    8000006e:	300027f3          	csrr	a5,mstatus

  // set the machine-mode trap handler.
  w_mtvec((uint64)timervec);

  // enable machine-mode interrupts.
  w_mstatus(r_mstatus() | MSTATUS_MIE);
    80000072:	0087e793          	ori	a5,a5,8
  asm volatile("csrw mstatus, %0" : : "r" (x));
    80000076:	30079073          	csrw	mstatus,a5
  asm volatile("csrr %0, mie" : "=r" (x) );
    8000007a:	304027f3          	csrr	a5,mie

  // enable machine-mode timer interrupts.
  w_mie(r_mie() | MIE_MTIE);
    8000007e:	0807e793          	ori	a5,a5,128
  asm volatile("csrw mie, %0" : : "r" (x));
    80000082:	30479073          	csrw	mie,a5
}
    80000086:	6422                	ld	s0,8(sp)
    80000088:	0141                	addi	sp,sp,16
    8000008a:	8082                	ret

000000008000008c <start>:
{
    8000008c:	1141                	addi	sp,sp,-16
    8000008e:	e406                	sd	ra,8(sp)
    80000090:	e022                	sd	s0,0(sp)
    80000092:	0800                	addi	s0,sp,16
  asm volatile("csrr %0, mstatus" : "=r" (x) );
    80000094:	300027f3          	csrr	a5,mstatus
  x &= ~MSTATUS_MPP_MASK;
    80000098:	7779                	lui	a4,0xffffe
    8000009a:	7ff70713          	addi	a4,a4,2047 # ffffffffffffe7ff <end+0xffffffff7ffd9bdf>
    8000009e:	8ff9                	and	a5,a5,a4
  x |= MSTATUS_MPP_S;
    800000a0:	6705                	lui	a4,0x1
    800000a2:	80070713          	addi	a4,a4,-2048 # 800 <_entry-0x7ffff800>
    800000a6:	8fd9                	or	a5,a5,a4
  asm volatile("csrw mstatus, %0" : : "r" (x));
    800000a8:	30079073          	csrw	mstatus,a5
  asm volatile("csrw mepc, %0" : : "r" (x));
    800000ac:	00001797          	auipc	a5,0x1
    800000b0:	dde78793          	addi	a5,a5,-546 # 80000e8a <main>
    800000b4:	34179073          	csrw	mepc,a5
  asm volatile("csrw satp, %0" : : "r" (x));
    800000b8:	4781                	li	a5,0
    800000ba:	18079073          	csrw	satp,a5
  asm volatile("csrw medeleg, %0" : : "r" (x));
    800000be:	67c1                	lui	a5,0x10
    800000c0:	17fd                	addi	a5,a5,-1 # ffff <_entry-0x7fff0001>
    800000c2:	30279073          	csrw	medeleg,a5
  asm volatile("csrw mideleg, %0" : : "r" (x));
    800000c6:	30379073          	csrw	mideleg,a5
  asm volatile("csrr %0, sie" : "=r" (x) );
    800000ca:	104027f3          	csrr	a5,sie
  w_sie(r_sie() | SIE_SEIE | SIE_STIE | SIE_SSIE);
    800000ce:	2227e793          	ori	a5,a5,546
  asm volatile("csrw sie, %0" : : "r" (x));
    800000d2:	10479073          	csrw	sie,a5
  asm volatile("csrw pmpaddr0, %0" : : "r" (x));
    800000d6:	57fd                	li	a5,-1
    800000d8:	83a9                	srli	a5,a5,0xa
    800000da:	3b079073          	csrw	pmpaddr0,a5
  asm volatile("csrw pmpcfg0, %0" : : "r" (x));
    800000de:	47bd                	li	a5,15
    800000e0:	3a079073          	csrw	pmpcfg0,a5
  timerinit();
    800000e4:	00000097          	auipc	ra,0x0
    800000e8:	f38080e7          	jalr	-200(ra) # 8000001c <timerinit>
  asm volatile("csrr %0, mhartid" : "=r" (x) );
    800000ec:	f14027f3          	csrr	a5,mhartid
  w_tp(id);
    800000f0:	2781                	sext.w	a5,a5
}

static inline void 
w_tp(uint64 x)
{
  asm volatile("mv tp, %0" : : "r" (x));
    800000f2:	823e                	mv	tp,a5
  asm volatile("mret");
    800000f4:	30200073          	mret
}
    800000f8:	60a2                	ld	ra,8(sp)
    800000fa:	6402                	ld	s0,0(sp)
    800000fc:	0141                	addi	sp,sp,16
    800000fe:	8082                	ret

0000000080000100 <consolewrite>:
//
// user write()s to the console go here.
//
int
consolewrite(int user_src, uint64 src, int n)
{
    80000100:	715d                	addi	sp,sp,-80
    80000102:	e486                	sd	ra,72(sp)
    80000104:	e0a2                	sd	s0,64(sp)
    80000106:	fc26                	sd	s1,56(sp)
    80000108:	f84a                	sd	s2,48(sp)
    8000010a:	f44e                	sd	s3,40(sp)
    8000010c:	f052                	sd	s4,32(sp)
    8000010e:	ec56                	sd	s5,24(sp)
    80000110:	0880                	addi	s0,sp,80
  int i;

  for(i = 0; i < n; i++){
    80000112:	04c05763          	blez	a2,80000160 <consolewrite+0x60>
    80000116:	8a2a                	mv	s4,a0
    80000118:	84ae                	mv	s1,a1
    8000011a:	89b2                	mv	s3,a2
    8000011c:	4901                	li	s2,0
    char c;
    if(either_copyin(&c, user_src, src+i, 1) == -1)
    8000011e:	5afd                	li	s5,-1
    80000120:	4685                	li	a3,1
    80000122:	8626                	mv	a2,s1
    80000124:	85d2                	mv	a1,s4
    80000126:	fbf40513          	addi	a0,s0,-65
    8000012a:	00002097          	auipc	ra,0x2
    8000012e:	6c0080e7          	jalr	1728(ra) # 800027ea <either_copyin>
    80000132:	01550d63          	beq	a0,s5,8000014c <consolewrite+0x4c>
      break;
    uartputc(c);
    80000136:	fbf44503          	lbu	a0,-65(s0)
    8000013a:	00000097          	auipc	ra,0x0
    8000013e:	784080e7          	jalr	1924(ra) # 800008be <uartputc>
  for(i = 0; i < n; i++){
    80000142:	2905                	addiw	s2,s2,1
    80000144:	0485                	addi	s1,s1,1
    80000146:	fd299de3          	bne	s3,s2,80000120 <consolewrite+0x20>
    8000014a:	894e                	mv	s2,s3
  }

  return i;
}
    8000014c:	854a                	mv	a0,s2
    8000014e:	60a6                	ld	ra,72(sp)
    80000150:	6406                	ld	s0,64(sp)
    80000152:	74e2                	ld	s1,56(sp)
    80000154:	7942                	ld	s2,48(sp)
    80000156:	79a2                	ld	s3,40(sp)
    80000158:	7a02                	ld	s4,32(sp)
    8000015a:	6ae2                	ld	s5,24(sp)
    8000015c:	6161                	addi	sp,sp,80
    8000015e:	8082                	ret
  for(i = 0; i < n; i++){
    80000160:	4901                	li	s2,0
    80000162:	b7ed                	j	8000014c <consolewrite+0x4c>

0000000080000164 <consoleread>:
// user_dist indicates whether dst is a user
// or kernel address.
//
int
consoleread(int user_dst, uint64 dst, int n)
{
    80000164:	7159                	addi	sp,sp,-112
    80000166:	f486                	sd	ra,104(sp)
    80000168:	f0a2                	sd	s0,96(sp)
    8000016a:	eca6                	sd	s1,88(sp)
    8000016c:	e8ca                	sd	s2,80(sp)
    8000016e:	e4ce                	sd	s3,72(sp)
    80000170:	e0d2                	sd	s4,64(sp)
    80000172:	fc56                	sd	s5,56(sp)
    80000174:	f85a                	sd	s6,48(sp)
    80000176:	f45e                	sd	s7,40(sp)
    80000178:	f062                	sd	s8,32(sp)
    8000017a:	ec66                	sd	s9,24(sp)
    8000017c:	e86a                	sd	s10,16(sp)
    8000017e:	1880                	addi	s0,sp,112
    80000180:	8aaa                	mv	s5,a0
    80000182:	8a2e                	mv	s4,a1
    80000184:	89b2                	mv	s3,a2
  uint target;
  int c;
  char cbuf;

  target = n;
    80000186:	00060b1b          	sext.w	s6,a2
  acquire(&cons.lock);
    8000018a:	00011517          	auipc	a0,0x11
    8000018e:	8c650513          	addi	a0,a0,-1850 # 80010a50 <cons>
    80000192:	00001097          	auipc	ra,0x1
    80000196:	a44080e7          	jalr	-1468(ra) # 80000bd6 <acquire>
  while(n > 0){
    // wait until interrupt handler has put some
    // input into cons.buffer.
    while(cons.r == cons.w){
    8000019a:	00011497          	auipc	s1,0x11
    8000019e:	8b648493          	addi	s1,s1,-1866 # 80010a50 <cons>
      if(killed(myproc())){
        release(&cons.lock);
        return -1;
      }
      sleep(&cons.r, &cons.lock);
    800001a2:	00011917          	auipc	s2,0x11
    800001a6:	94690913          	addi	s2,s2,-1722 # 80010ae8 <cons+0x98>
    }

    c = cons.buf[cons.r++ % INPUT_BUF_SIZE];

    if(c == C('D')){  // end-of-file
    800001aa:	4b91                	li	s7,4
      break;
    }

    // copy the input byte to the user-space buffer.
    cbuf = c;
    if(either_copyout(user_dst, dst, &cbuf, 1) == -1)
    800001ac:	5c7d                	li	s8,-1
      break;

    dst++;
    --n;

    if(c == '\n'){
    800001ae:	4ca9                	li	s9,10
  while(n > 0){
    800001b0:	07305b63          	blez	s3,80000226 <consoleread+0xc2>
    while(cons.r == cons.w){
    800001b4:	0984a783          	lw	a5,152(s1)
    800001b8:	09c4a703          	lw	a4,156(s1)
    800001bc:	02f71763          	bne	a4,a5,800001ea <consoleread+0x86>
      if(killed(myproc())){
    800001c0:	00002097          	auipc	ra,0x2
    800001c4:	806080e7          	jalr	-2042(ra) # 800019c6 <myproc>
    800001c8:	00002097          	auipc	ra,0x2
    800001cc:	46c080e7          	jalr	1132(ra) # 80002634 <killed>
    800001d0:	e535                	bnez	a0,8000023c <consoleread+0xd8>
      sleep(&cons.r, &cons.lock);
    800001d2:	85a6                	mv	a1,s1
    800001d4:	854a                	mv	a0,s2
    800001d6:	00002097          	auipc	ra,0x2
    800001da:	1aa080e7          	jalr	426(ra) # 80002380 <sleep>
    while(cons.r == cons.w){
    800001de:	0984a783          	lw	a5,152(s1)
    800001e2:	09c4a703          	lw	a4,156(s1)
    800001e6:	fcf70de3          	beq	a4,a5,800001c0 <consoleread+0x5c>
    c = cons.buf[cons.r++ % INPUT_BUF_SIZE];
    800001ea:	0017871b          	addiw	a4,a5,1
    800001ee:	08e4ac23          	sw	a4,152(s1)
    800001f2:	07f7f713          	andi	a4,a5,127
    800001f6:	9726                	add	a4,a4,s1
    800001f8:	01874703          	lbu	a4,24(a4)
    800001fc:	00070d1b          	sext.w	s10,a4
    if(c == C('D')){  // end-of-file
    80000200:	077d0563          	beq	s10,s7,8000026a <consoleread+0x106>
    cbuf = c;
    80000204:	f8e40fa3          	sb	a4,-97(s0)
    if(either_copyout(user_dst, dst, &cbuf, 1) == -1)
    80000208:	4685                	li	a3,1
    8000020a:	f9f40613          	addi	a2,s0,-97
    8000020e:	85d2                	mv	a1,s4
    80000210:	8556                	mv	a0,s5
    80000212:	00002097          	auipc	ra,0x2
    80000216:	582080e7          	jalr	1410(ra) # 80002794 <either_copyout>
    8000021a:	01850663          	beq	a0,s8,80000226 <consoleread+0xc2>
    dst++;
    8000021e:	0a05                	addi	s4,s4,1
    --n;
    80000220:	39fd                	addiw	s3,s3,-1
    if(c == '\n'){
    80000222:	f99d17e3          	bne	s10,s9,800001b0 <consoleread+0x4c>
      // a whole line has arrived, return to
      // the user-level read().
      break;
    }
  }
  release(&cons.lock);
    80000226:	00011517          	auipc	a0,0x11
    8000022a:	82a50513          	addi	a0,a0,-2006 # 80010a50 <cons>
    8000022e:	00001097          	auipc	ra,0x1
    80000232:	a6e080e7          	jalr	-1426(ra) # 80000c9c <release>

  return target - n;
    80000236:	413b053b          	subw	a0,s6,s3
    8000023a:	a811                	j	8000024e <consoleread+0xea>
        release(&cons.lock);
    8000023c:	00011517          	auipc	a0,0x11
    80000240:	81450513          	addi	a0,a0,-2028 # 80010a50 <cons>
    80000244:	00001097          	auipc	ra,0x1
    80000248:	a58080e7          	jalr	-1448(ra) # 80000c9c <release>
        return -1;
    8000024c:	557d                	li	a0,-1
}
    8000024e:	70a6                	ld	ra,104(sp)
    80000250:	7406                	ld	s0,96(sp)
    80000252:	64e6                	ld	s1,88(sp)
    80000254:	6946                	ld	s2,80(sp)
    80000256:	69a6                	ld	s3,72(sp)
    80000258:	6a06                	ld	s4,64(sp)
    8000025a:	7ae2                	ld	s5,56(sp)
    8000025c:	7b42                	ld	s6,48(sp)
    8000025e:	7ba2                	ld	s7,40(sp)
    80000260:	7c02                	ld	s8,32(sp)
    80000262:	6ce2                	ld	s9,24(sp)
    80000264:	6d42                	ld	s10,16(sp)
    80000266:	6165                	addi	sp,sp,112
    80000268:	8082                	ret
      if(n < target){
    8000026a:	0009871b          	sext.w	a4,s3
    8000026e:	fb677ce3          	bgeu	a4,s6,80000226 <consoleread+0xc2>
        cons.r--;
    80000272:	00011717          	auipc	a4,0x11
    80000276:	86f72b23          	sw	a5,-1930(a4) # 80010ae8 <cons+0x98>
    8000027a:	b775                	j	80000226 <consoleread+0xc2>

000000008000027c <consputc>:
{
    8000027c:	1141                	addi	sp,sp,-16
    8000027e:	e406                	sd	ra,8(sp)
    80000280:	e022                	sd	s0,0(sp)
    80000282:	0800                	addi	s0,sp,16
  if(c == BACKSPACE){
    80000284:	10000793          	li	a5,256
    80000288:	00f50a63          	beq	a0,a5,8000029c <consputc+0x20>
    uartputc_sync(c);
    8000028c:	00000097          	auipc	ra,0x0
    80000290:	560080e7          	jalr	1376(ra) # 800007ec <uartputc_sync>
}
    80000294:	60a2                	ld	ra,8(sp)
    80000296:	6402                	ld	s0,0(sp)
    80000298:	0141                	addi	sp,sp,16
    8000029a:	8082                	ret
    uartputc_sync('\b'); uartputc_sync(' '); uartputc_sync('\b');
    8000029c:	4521                	li	a0,8
    8000029e:	00000097          	auipc	ra,0x0
    800002a2:	54e080e7          	jalr	1358(ra) # 800007ec <uartputc_sync>
    800002a6:	02000513          	li	a0,32
    800002aa:	00000097          	auipc	ra,0x0
    800002ae:	542080e7          	jalr	1346(ra) # 800007ec <uartputc_sync>
    800002b2:	4521                	li	a0,8
    800002b4:	00000097          	auipc	ra,0x0
    800002b8:	538080e7          	jalr	1336(ra) # 800007ec <uartputc_sync>
    800002bc:	bfe1                	j	80000294 <consputc+0x18>

00000000800002be <consoleintr>:
// do erase/kill processing, append to cons.buf,
// wake up consoleread() if a whole line has arrived.
//
void
consoleintr(int c)
{
    800002be:	1101                	addi	sp,sp,-32
    800002c0:	ec06                	sd	ra,24(sp)
    800002c2:	e822                	sd	s0,16(sp)
    800002c4:	e426                	sd	s1,8(sp)
    800002c6:	e04a                	sd	s2,0(sp)
    800002c8:	1000                	addi	s0,sp,32
    800002ca:	84aa                	mv	s1,a0
  acquire(&cons.lock);
    800002cc:	00010517          	auipc	a0,0x10
    800002d0:	78450513          	addi	a0,a0,1924 # 80010a50 <cons>
    800002d4:	00001097          	auipc	ra,0x1
    800002d8:	902080e7          	jalr	-1790(ra) # 80000bd6 <acquire>

  switch(c){
    800002dc:	47d5                	li	a5,21
    800002de:	0af48663          	beq	s1,a5,8000038a <consoleintr+0xcc>
    800002e2:	0297ca63          	blt	a5,s1,80000316 <consoleintr+0x58>
    800002e6:	47a1                	li	a5,8
    800002e8:	0ef48763          	beq	s1,a5,800003d6 <consoleintr+0x118>
    800002ec:	47c1                	li	a5,16
    800002ee:	10f49a63          	bne	s1,a5,80000402 <consoleintr+0x144>
  case C('P'):  // Print process list.
    procdump();
    800002f2:	00002097          	auipc	ra,0x2
    800002f6:	54e080e7          	jalr	1358(ra) # 80002840 <procdump>
      }
    }
    break;
  }
  
  release(&cons.lock);
    800002fa:	00010517          	auipc	a0,0x10
    800002fe:	75650513          	addi	a0,a0,1878 # 80010a50 <cons>
    80000302:	00001097          	auipc	ra,0x1
    80000306:	99a080e7          	jalr	-1638(ra) # 80000c9c <release>
}
    8000030a:	60e2                	ld	ra,24(sp)
    8000030c:	6442                	ld	s0,16(sp)
    8000030e:	64a2                	ld	s1,8(sp)
    80000310:	6902                	ld	s2,0(sp)
    80000312:	6105                	addi	sp,sp,32
    80000314:	8082                	ret
  switch(c){
    80000316:	07f00793          	li	a5,127
    8000031a:	0af48e63          	beq	s1,a5,800003d6 <consoleintr+0x118>
    if(c != 0 && cons.e-cons.r < INPUT_BUF_SIZE){
    8000031e:	00010717          	auipc	a4,0x10
    80000322:	73270713          	addi	a4,a4,1842 # 80010a50 <cons>
    80000326:	0a072783          	lw	a5,160(a4)
    8000032a:	09872703          	lw	a4,152(a4)
    8000032e:	9f99                	subw	a5,a5,a4
    80000330:	07f00713          	li	a4,127
    80000334:	fcf763e3          	bltu	a4,a5,800002fa <consoleintr+0x3c>
      c = (c == '\r') ? '\n' : c;
    80000338:	47b5                	li	a5,13
    8000033a:	0cf48763          	beq	s1,a5,80000408 <consoleintr+0x14a>
      consputc(c);
    8000033e:	8526                	mv	a0,s1
    80000340:	00000097          	auipc	ra,0x0
    80000344:	f3c080e7          	jalr	-196(ra) # 8000027c <consputc>
      cons.buf[cons.e++ % INPUT_BUF_SIZE] = c;
    80000348:	00010797          	auipc	a5,0x10
    8000034c:	70878793          	addi	a5,a5,1800 # 80010a50 <cons>
    80000350:	0a07a683          	lw	a3,160(a5)
    80000354:	0016871b          	addiw	a4,a3,1
    80000358:	0007061b          	sext.w	a2,a4
    8000035c:	0ae7a023          	sw	a4,160(a5)
    80000360:	07f6f693          	andi	a3,a3,127
    80000364:	97b6                	add	a5,a5,a3
    80000366:	00978c23          	sb	s1,24(a5)
      if(c == '\n' || c == C('D') || cons.e-cons.r == INPUT_BUF_SIZE){
    8000036a:	47a9                	li	a5,10
    8000036c:	0cf48563          	beq	s1,a5,80000436 <consoleintr+0x178>
    80000370:	4791                	li	a5,4
    80000372:	0cf48263          	beq	s1,a5,80000436 <consoleintr+0x178>
    80000376:	00010797          	auipc	a5,0x10
    8000037a:	7727a783          	lw	a5,1906(a5) # 80010ae8 <cons+0x98>
    8000037e:	9f1d                	subw	a4,a4,a5
    80000380:	08000793          	li	a5,128
    80000384:	f6f71be3          	bne	a4,a5,800002fa <consoleintr+0x3c>
    80000388:	a07d                	j	80000436 <consoleintr+0x178>
    while(cons.e != cons.w &&
    8000038a:	00010717          	auipc	a4,0x10
    8000038e:	6c670713          	addi	a4,a4,1734 # 80010a50 <cons>
    80000392:	0a072783          	lw	a5,160(a4)
    80000396:	09c72703          	lw	a4,156(a4)
          cons.buf[(cons.e-1) % INPUT_BUF_SIZE] != '\n'){
    8000039a:	00010497          	auipc	s1,0x10
    8000039e:	6b648493          	addi	s1,s1,1718 # 80010a50 <cons>
    while(cons.e != cons.w &&
    800003a2:	4929                	li	s2,10
    800003a4:	f4f70be3          	beq	a4,a5,800002fa <consoleintr+0x3c>
          cons.buf[(cons.e-1) % INPUT_BUF_SIZE] != '\n'){
    800003a8:	37fd                	addiw	a5,a5,-1
    800003aa:	07f7f713          	andi	a4,a5,127
    800003ae:	9726                	add	a4,a4,s1
    while(cons.e != cons.w &&
    800003b0:	01874703          	lbu	a4,24(a4)
    800003b4:	f52703e3          	beq	a4,s2,800002fa <consoleintr+0x3c>
      cons.e--;
    800003b8:	0af4a023          	sw	a5,160(s1)
      consputc(BACKSPACE);
    800003bc:	10000513          	li	a0,256
    800003c0:	00000097          	auipc	ra,0x0
    800003c4:	ebc080e7          	jalr	-324(ra) # 8000027c <consputc>
    while(cons.e != cons.w &&
    800003c8:	0a04a783          	lw	a5,160(s1)
    800003cc:	09c4a703          	lw	a4,156(s1)
    800003d0:	fcf71ce3          	bne	a4,a5,800003a8 <consoleintr+0xea>
    800003d4:	b71d                	j	800002fa <consoleintr+0x3c>
    if(cons.e != cons.w){
    800003d6:	00010717          	auipc	a4,0x10
    800003da:	67a70713          	addi	a4,a4,1658 # 80010a50 <cons>
    800003de:	0a072783          	lw	a5,160(a4)
    800003e2:	09c72703          	lw	a4,156(a4)
    800003e6:	f0f70ae3          	beq	a4,a5,800002fa <consoleintr+0x3c>
      cons.e--;
    800003ea:	37fd                	addiw	a5,a5,-1
    800003ec:	00010717          	auipc	a4,0x10
    800003f0:	70f72223          	sw	a5,1796(a4) # 80010af0 <cons+0xa0>
      consputc(BACKSPACE);
    800003f4:	10000513          	li	a0,256
    800003f8:	00000097          	auipc	ra,0x0
    800003fc:	e84080e7          	jalr	-380(ra) # 8000027c <consputc>
    80000400:	bded                	j	800002fa <consoleintr+0x3c>
    if(c != 0 && cons.e-cons.r < INPUT_BUF_SIZE){
    80000402:	ee048ce3          	beqz	s1,800002fa <consoleintr+0x3c>
    80000406:	bf21                	j	8000031e <consoleintr+0x60>
      consputc(c);
    80000408:	4529                	li	a0,10
    8000040a:	00000097          	auipc	ra,0x0
    8000040e:	e72080e7          	jalr	-398(ra) # 8000027c <consputc>
      cons.buf[cons.e++ % INPUT_BUF_SIZE] = c;
    80000412:	00010797          	auipc	a5,0x10
    80000416:	63e78793          	addi	a5,a5,1598 # 80010a50 <cons>
    8000041a:	0a07a703          	lw	a4,160(a5)
    8000041e:	0017069b          	addiw	a3,a4,1
    80000422:	0006861b          	sext.w	a2,a3
    80000426:	0ad7a023          	sw	a3,160(a5)
    8000042a:	07f77713          	andi	a4,a4,127
    8000042e:	97ba                	add	a5,a5,a4
    80000430:	4729                	li	a4,10
    80000432:	00e78c23          	sb	a4,24(a5)
        cons.w = cons.e;
    80000436:	00010797          	auipc	a5,0x10
    8000043a:	6ac7ab23          	sw	a2,1718(a5) # 80010aec <cons+0x9c>
        wakeup(&cons.r);
    8000043e:	00010517          	auipc	a0,0x10
    80000442:	6aa50513          	addi	a0,a0,1706 # 80010ae8 <cons+0x98>
    80000446:	00002097          	auipc	ra,0x2
    8000044a:	f9e080e7          	jalr	-98(ra) # 800023e4 <wakeup>
    8000044e:	b575                	j	800002fa <consoleintr+0x3c>

0000000080000450 <consoleinit>:

void
consoleinit(void)
{
    80000450:	1141                	addi	sp,sp,-16
    80000452:	e406                	sd	ra,8(sp)
    80000454:	e022                	sd	s0,0(sp)
    80000456:	0800                	addi	s0,sp,16
  initlock(&cons.lock, "cons");
    80000458:	00008597          	auipc	a1,0x8
    8000045c:	bb858593          	addi	a1,a1,-1096 # 80008010 <etext+0x10>
    80000460:	00010517          	auipc	a0,0x10
    80000464:	5f050513          	addi	a0,a0,1520 # 80010a50 <cons>
    80000468:	00000097          	auipc	ra,0x0
    8000046c:	6de080e7          	jalr	1758(ra) # 80000b46 <initlock>

  uartinit();
    80000470:	00000097          	auipc	ra,0x0
    80000474:	32c080e7          	jalr	812(ra) # 8000079c <uartinit>

  // connect read and write system calls
  // to consoleread and consolewrite.
  devsw[CONSOLE].read = consoleread;
    80000478:	00023797          	auipc	a5,0x23
    8000047c:	61078793          	addi	a5,a5,1552 # 80023a88 <devsw>
    80000480:	00000717          	auipc	a4,0x0
    80000484:	ce470713          	addi	a4,a4,-796 # 80000164 <consoleread>
    80000488:	eb98                	sd	a4,16(a5)
  devsw[CONSOLE].write = consolewrite;
    8000048a:	00000717          	auipc	a4,0x0
    8000048e:	c7670713          	addi	a4,a4,-906 # 80000100 <consolewrite>
    80000492:	ef98                	sd	a4,24(a5)
}
    80000494:	60a2                	ld	ra,8(sp)
    80000496:	6402                	ld	s0,0(sp)
    80000498:	0141                	addi	sp,sp,16
    8000049a:	8082                	ret

000000008000049c <printint>:

static char digits[] = "0123456789abcdef";

static void
printint(int xx, int base, int sign)
{
    8000049c:	7179                	addi	sp,sp,-48
    8000049e:	f406                	sd	ra,40(sp)
    800004a0:	f022                	sd	s0,32(sp)
    800004a2:	ec26                	sd	s1,24(sp)
    800004a4:	e84a                	sd	s2,16(sp)
    800004a6:	1800                	addi	s0,sp,48
  char buf[16];
  int i;
  uint x;

  if(sign && (sign = xx < 0))
    800004a8:	c219                	beqz	a2,800004ae <printint+0x12>
    800004aa:	08054763          	bltz	a0,80000538 <printint+0x9c>
    x = -xx;
  else
    x = xx;
    800004ae:	2501                	sext.w	a0,a0
    800004b0:	4881                	li	a7,0
    800004b2:	fd040693          	addi	a3,s0,-48

  i = 0;
    800004b6:	4701                	li	a4,0
  do {
    buf[i++] = digits[x % base];
    800004b8:	2581                	sext.w	a1,a1
    800004ba:	00008617          	auipc	a2,0x8
    800004be:	b8660613          	addi	a2,a2,-1146 # 80008040 <digits>
    800004c2:	883a                	mv	a6,a4
    800004c4:	2705                	addiw	a4,a4,1
    800004c6:	02b577bb          	remuw	a5,a0,a1
    800004ca:	1782                	slli	a5,a5,0x20
    800004cc:	9381                	srli	a5,a5,0x20
    800004ce:	97b2                	add	a5,a5,a2
    800004d0:	0007c783          	lbu	a5,0(a5)
    800004d4:	00f68023          	sb	a5,0(a3)
  } while((x /= base) != 0);
    800004d8:	0005079b          	sext.w	a5,a0
    800004dc:	02b5553b          	divuw	a0,a0,a1
    800004e0:	0685                	addi	a3,a3,1
    800004e2:	feb7f0e3          	bgeu	a5,a1,800004c2 <printint+0x26>

  if(sign)
    800004e6:	00088c63          	beqz	a7,800004fe <printint+0x62>
    buf[i++] = '-';
    800004ea:	fe070793          	addi	a5,a4,-32
    800004ee:	00878733          	add	a4,a5,s0
    800004f2:	02d00793          	li	a5,45
    800004f6:	fef70823          	sb	a5,-16(a4)
    800004fa:	0028071b          	addiw	a4,a6,2

  while(--i >= 0)
    800004fe:	02e05763          	blez	a4,8000052c <printint+0x90>
    80000502:	fd040793          	addi	a5,s0,-48
    80000506:	00e784b3          	add	s1,a5,a4
    8000050a:	fff78913          	addi	s2,a5,-1
    8000050e:	993a                	add	s2,s2,a4
    80000510:	377d                	addiw	a4,a4,-1
    80000512:	1702                	slli	a4,a4,0x20
    80000514:	9301                	srli	a4,a4,0x20
    80000516:	40e90933          	sub	s2,s2,a4
    consputc(buf[i]);
    8000051a:	fff4c503          	lbu	a0,-1(s1)
    8000051e:	00000097          	auipc	ra,0x0
    80000522:	d5e080e7          	jalr	-674(ra) # 8000027c <consputc>
  while(--i >= 0)
    80000526:	14fd                	addi	s1,s1,-1
    80000528:	ff2499e3          	bne	s1,s2,8000051a <printint+0x7e>
}
    8000052c:	70a2                	ld	ra,40(sp)
    8000052e:	7402                	ld	s0,32(sp)
    80000530:	64e2                	ld	s1,24(sp)
    80000532:	6942                	ld	s2,16(sp)
    80000534:	6145                	addi	sp,sp,48
    80000536:	8082                	ret
    x = -xx;
    80000538:	40a0053b          	negw	a0,a0
  if(sign && (sign = xx < 0))
    8000053c:	4885                	li	a7,1
    x = -xx;
    8000053e:	bf95                	j	800004b2 <printint+0x16>

0000000080000540 <panic>:
    release(&pr.lock);
}

void
panic(char *s)
{
    80000540:	1101                	addi	sp,sp,-32
    80000542:	ec06                	sd	ra,24(sp)
    80000544:	e822                	sd	s0,16(sp)
    80000546:	e426                	sd	s1,8(sp)
    80000548:	1000                	addi	s0,sp,32
    8000054a:	84aa                	mv	s1,a0
  pr.locking = 0;
    8000054c:	00010797          	auipc	a5,0x10
    80000550:	5c07a223          	sw	zero,1476(a5) # 80010b10 <pr+0x18>
  printf("panic: ");
    80000554:	00008517          	auipc	a0,0x8
    80000558:	ac450513          	addi	a0,a0,-1340 # 80008018 <etext+0x18>
    8000055c:	00000097          	auipc	ra,0x0
    80000560:	02e080e7          	jalr	46(ra) # 8000058a <printf>
  printf(s);
    80000564:	8526                	mv	a0,s1
    80000566:	00000097          	auipc	ra,0x0
    8000056a:	024080e7          	jalr	36(ra) # 8000058a <printf>
  printf("\n");
    8000056e:	00008517          	auipc	a0,0x8
    80000572:	b6a50513          	addi	a0,a0,-1174 # 800080d8 <digits+0x98>
    80000576:	00000097          	auipc	ra,0x0
    8000057a:	014080e7          	jalr	20(ra) # 8000058a <printf>
  panicked = 1; // freeze uart output from other CPUs
    8000057e:	4785                	li	a5,1
    80000580:	00008717          	auipc	a4,0x8
    80000584:	34f72823          	sw	a5,848(a4) # 800088d0 <panicked>
  for(;;)
    80000588:	a001                	j	80000588 <panic+0x48>

000000008000058a <printf>:
{
    8000058a:	7131                	addi	sp,sp,-192
    8000058c:	fc86                	sd	ra,120(sp)
    8000058e:	f8a2                	sd	s0,112(sp)
    80000590:	f4a6                	sd	s1,104(sp)
    80000592:	f0ca                	sd	s2,96(sp)
    80000594:	ecce                	sd	s3,88(sp)
    80000596:	e8d2                	sd	s4,80(sp)
    80000598:	e4d6                	sd	s5,72(sp)
    8000059a:	e0da                	sd	s6,64(sp)
    8000059c:	fc5e                	sd	s7,56(sp)
    8000059e:	f862                	sd	s8,48(sp)
    800005a0:	f466                	sd	s9,40(sp)
    800005a2:	f06a                	sd	s10,32(sp)
    800005a4:	ec6e                	sd	s11,24(sp)
    800005a6:	0100                	addi	s0,sp,128
    800005a8:	8a2a                	mv	s4,a0
    800005aa:	e40c                	sd	a1,8(s0)
    800005ac:	e810                	sd	a2,16(s0)
    800005ae:	ec14                	sd	a3,24(s0)
    800005b0:	f018                	sd	a4,32(s0)
    800005b2:	f41c                	sd	a5,40(s0)
    800005b4:	03043823          	sd	a6,48(s0)
    800005b8:	03143c23          	sd	a7,56(s0)
  locking = pr.locking;
    800005bc:	00010d97          	auipc	s11,0x10
    800005c0:	554dad83          	lw	s11,1364(s11) # 80010b10 <pr+0x18>
  if(locking)
    800005c4:	020d9b63          	bnez	s11,800005fa <printf+0x70>
  if (fmt == 0)
    800005c8:	040a0263          	beqz	s4,8000060c <printf+0x82>
  va_start(ap, fmt);
    800005cc:	00840793          	addi	a5,s0,8
    800005d0:	f8f43423          	sd	a5,-120(s0)
  for(i = 0; (c = fmt[i] & 0xff) != 0; i++){
    800005d4:	000a4503          	lbu	a0,0(s4)
    800005d8:	14050f63          	beqz	a0,80000736 <printf+0x1ac>
    800005dc:	4981                	li	s3,0
    if(c != '%'){
    800005de:	02500a93          	li	s5,37
    switch(c){
    800005e2:	07000b93          	li	s7,112
  consputc('x');
    800005e6:	4d41                	li	s10,16
    consputc(digits[x >> (sizeof(uint64) * 8 - 4)]);
    800005e8:	00008b17          	auipc	s6,0x8
    800005ec:	a58b0b13          	addi	s6,s6,-1448 # 80008040 <digits>
    switch(c){
    800005f0:	07300c93          	li	s9,115
    800005f4:	06400c13          	li	s8,100
    800005f8:	a82d                	j	80000632 <printf+0xa8>
    acquire(&pr.lock);
    800005fa:	00010517          	auipc	a0,0x10
    800005fe:	4fe50513          	addi	a0,a0,1278 # 80010af8 <pr>
    80000602:	00000097          	auipc	ra,0x0
    80000606:	5d4080e7          	jalr	1492(ra) # 80000bd6 <acquire>
    8000060a:	bf7d                	j	800005c8 <printf+0x3e>
    panic("null fmt");
    8000060c:	00008517          	auipc	a0,0x8
    80000610:	a1c50513          	addi	a0,a0,-1508 # 80008028 <etext+0x28>
    80000614:	00000097          	auipc	ra,0x0
    80000618:	f2c080e7          	jalr	-212(ra) # 80000540 <panic>
      consputc(c);
    8000061c:	00000097          	auipc	ra,0x0
    80000620:	c60080e7          	jalr	-928(ra) # 8000027c <consputc>
  for(i = 0; (c = fmt[i] & 0xff) != 0; i++){
    80000624:	2985                	addiw	s3,s3,1
    80000626:	013a07b3          	add	a5,s4,s3
    8000062a:	0007c503          	lbu	a0,0(a5)
    8000062e:	10050463          	beqz	a0,80000736 <printf+0x1ac>
    if(c != '%'){
    80000632:	ff5515e3          	bne	a0,s5,8000061c <printf+0x92>
    c = fmt[++i] & 0xff;
    80000636:	2985                	addiw	s3,s3,1
    80000638:	013a07b3          	add	a5,s4,s3
    8000063c:	0007c783          	lbu	a5,0(a5)
    80000640:	0007849b          	sext.w	s1,a5
    if(c == 0)
    80000644:	cbed                	beqz	a5,80000736 <printf+0x1ac>
    switch(c){
    80000646:	05778a63          	beq	a5,s7,8000069a <printf+0x110>
    8000064a:	02fbf663          	bgeu	s7,a5,80000676 <printf+0xec>
    8000064e:	09978863          	beq	a5,s9,800006de <printf+0x154>
    80000652:	07800713          	li	a4,120
    80000656:	0ce79563          	bne	a5,a4,80000720 <printf+0x196>
      printint(va_arg(ap, int), 16, 1);
    8000065a:	f8843783          	ld	a5,-120(s0)
    8000065e:	00878713          	addi	a4,a5,8
    80000662:	f8e43423          	sd	a4,-120(s0)
    80000666:	4605                	li	a2,1
    80000668:	85ea                	mv	a1,s10
    8000066a:	4388                	lw	a0,0(a5)
    8000066c:	00000097          	auipc	ra,0x0
    80000670:	e30080e7          	jalr	-464(ra) # 8000049c <printint>
      break;
    80000674:	bf45                	j	80000624 <printf+0x9a>
    switch(c){
    80000676:	09578f63          	beq	a5,s5,80000714 <printf+0x18a>
    8000067a:	0b879363          	bne	a5,s8,80000720 <printf+0x196>
      printint(va_arg(ap, int), 10, 1);
    8000067e:	f8843783          	ld	a5,-120(s0)
    80000682:	00878713          	addi	a4,a5,8
    80000686:	f8e43423          	sd	a4,-120(s0)
    8000068a:	4605                	li	a2,1
    8000068c:	45a9                	li	a1,10
    8000068e:	4388                	lw	a0,0(a5)
    80000690:	00000097          	auipc	ra,0x0
    80000694:	e0c080e7          	jalr	-500(ra) # 8000049c <printint>
      break;
    80000698:	b771                	j	80000624 <printf+0x9a>
      printptr(va_arg(ap, uint64));
    8000069a:	f8843783          	ld	a5,-120(s0)
    8000069e:	00878713          	addi	a4,a5,8
    800006a2:	f8e43423          	sd	a4,-120(s0)
    800006a6:	0007b903          	ld	s2,0(a5)
  consputc('0');
    800006aa:	03000513          	li	a0,48
    800006ae:	00000097          	auipc	ra,0x0
    800006b2:	bce080e7          	jalr	-1074(ra) # 8000027c <consputc>
  consputc('x');
    800006b6:	07800513          	li	a0,120
    800006ba:	00000097          	auipc	ra,0x0
    800006be:	bc2080e7          	jalr	-1086(ra) # 8000027c <consputc>
    800006c2:	84ea                	mv	s1,s10
    consputc(digits[x >> (sizeof(uint64) * 8 - 4)]);
    800006c4:	03c95793          	srli	a5,s2,0x3c
    800006c8:	97da                	add	a5,a5,s6
    800006ca:	0007c503          	lbu	a0,0(a5)
    800006ce:	00000097          	auipc	ra,0x0
    800006d2:	bae080e7          	jalr	-1106(ra) # 8000027c <consputc>
  for (i = 0; i < (sizeof(uint64) * 2); i++, x <<= 4)
    800006d6:	0912                	slli	s2,s2,0x4
    800006d8:	34fd                	addiw	s1,s1,-1
    800006da:	f4ed                	bnez	s1,800006c4 <printf+0x13a>
    800006dc:	b7a1                	j	80000624 <printf+0x9a>
      if((s = va_arg(ap, char*)) == 0)
    800006de:	f8843783          	ld	a5,-120(s0)
    800006e2:	00878713          	addi	a4,a5,8
    800006e6:	f8e43423          	sd	a4,-120(s0)
    800006ea:	6384                	ld	s1,0(a5)
    800006ec:	cc89                	beqz	s1,80000706 <printf+0x17c>
      for(; *s; s++)
    800006ee:	0004c503          	lbu	a0,0(s1)
    800006f2:	d90d                	beqz	a0,80000624 <printf+0x9a>
        consputc(*s);
    800006f4:	00000097          	auipc	ra,0x0
    800006f8:	b88080e7          	jalr	-1144(ra) # 8000027c <consputc>
      for(; *s; s++)
    800006fc:	0485                	addi	s1,s1,1
    800006fe:	0004c503          	lbu	a0,0(s1)
    80000702:	f96d                	bnez	a0,800006f4 <printf+0x16a>
    80000704:	b705                	j	80000624 <printf+0x9a>
        s = "(null)";
    80000706:	00008497          	auipc	s1,0x8
    8000070a:	91a48493          	addi	s1,s1,-1766 # 80008020 <etext+0x20>
      for(; *s; s++)
    8000070e:	02800513          	li	a0,40
    80000712:	b7cd                	j	800006f4 <printf+0x16a>
      consputc('%');
    80000714:	8556                	mv	a0,s5
    80000716:	00000097          	auipc	ra,0x0
    8000071a:	b66080e7          	jalr	-1178(ra) # 8000027c <consputc>
      break;
    8000071e:	b719                	j	80000624 <printf+0x9a>
      consputc('%');
    80000720:	8556                	mv	a0,s5
    80000722:	00000097          	auipc	ra,0x0
    80000726:	b5a080e7          	jalr	-1190(ra) # 8000027c <consputc>
      consputc(c);
    8000072a:	8526                	mv	a0,s1
    8000072c:	00000097          	auipc	ra,0x0
    80000730:	b50080e7          	jalr	-1200(ra) # 8000027c <consputc>
      break;
    80000734:	bdc5                	j	80000624 <printf+0x9a>
  if(locking)
    80000736:	020d9163          	bnez	s11,80000758 <printf+0x1ce>
}
    8000073a:	70e6                	ld	ra,120(sp)
    8000073c:	7446                	ld	s0,112(sp)
    8000073e:	74a6                	ld	s1,104(sp)
    80000740:	7906                	ld	s2,96(sp)
    80000742:	69e6                	ld	s3,88(sp)
    80000744:	6a46                	ld	s4,80(sp)
    80000746:	6aa6                	ld	s5,72(sp)
    80000748:	6b06                	ld	s6,64(sp)
    8000074a:	7be2                	ld	s7,56(sp)
    8000074c:	7c42                	ld	s8,48(sp)
    8000074e:	7ca2                	ld	s9,40(sp)
    80000750:	7d02                	ld	s10,32(sp)
    80000752:	6de2                	ld	s11,24(sp)
    80000754:	6129                	addi	sp,sp,192
    80000756:	8082                	ret
    release(&pr.lock);
    80000758:	00010517          	auipc	a0,0x10
    8000075c:	3a050513          	addi	a0,a0,928 # 80010af8 <pr>
    80000760:	00000097          	auipc	ra,0x0
    80000764:	53c080e7          	jalr	1340(ra) # 80000c9c <release>
}
    80000768:	bfc9                	j	8000073a <printf+0x1b0>

000000008000076a <printfinit>:
    ;
}

void
printfinit(void)
{
    8000076a:	1101                	addi	sp,sp,-32
    8000076c:	ec06                	sd	ra,24(sp)
    8000076e:	e822                	sd	s0,16(sp)
    80000770:	e426                	sd	s1,8(sp)
    80000772:	1000                	addi	s0,sp,32
  initlock(&pr.lock, "pr");
    80000774:	00010497          	auipc	s1,0x10
    80000778:	38448493          	addi	s1,s1,900 # 80010af8 <pr>
    8000077c:	00008597          	auipc	a1,0x8
    80000780:	8bc58593          	addi	a1,a1,-1860 # 80008038 <etext+0x38>
    80000784:	8526                	mv	a0,s1
    80000786:	00000097          	auipc	ra,0x0
    8000078a:	3c0080e7          	jalr	960(ra) # 80000b46 <initlock>
  pr.locking = 1;
    8000078e:	4785                	li	a5,1
    80000790:	cc9c                	sw	a5,24(s1)
}
    80000792:	60e2                	ld	ra,24(sp)
    80000794:	6442                	ld	s0,16(sp)
    80000796:	64a2                	ld	s1,8(sp)
    80000798:	6105                	addi	sp,sp,32
    8000079a:	8082                	ret

000000008000079c <uartinit>:

void uartstart();

void
uartinit(void)
{
    8000079c:	1141                	addi	sp,sp,-16
    8000079e:	e406                	sd	ra,8(sp)
    800007a0:	e022                	sd	s0,0(sp)
    800007a2:	0800                	addi	s0,sp,16
  // disable interrupts.
  WriteReg(IER, 0x00);
    800007a4:	100007b7          	lui	a5,0x10000
    800007a8:	000780a3          	sb	zero,1(a5) # 10000001 <_entry-0x6fffffff>

  // special mode to set baud rate.
  WriteReg(LCR, LCR_BAUD_LATCH);
    800007ac:	f8000713          	li	a4,-128
    800007b0:	00e781a3          	sb	a4,3(a5)

  // LSB for baud rate of 38.4K.
  WriteReg(0, 0x03);
    800007b4:	470d                	li	a4,3
    800007b6:	00e78023          	sb	a4,0(a5)

  // MSB for baud rate of 38.4K.
  WriteReg(1, 0x00);
    800007ba:	000780a3          	sb	zero,1(a5)

  // leave set-baud mode,
  // and set word length to 8 bits, no parity.
  WriteReg(LCR, LCR_EIGHT_BITS);
    800007be:	00e781a3          	sb	a4,3(a5)

  // reset and enable FIFOs.
  WriteReg(FCR, FCR_FIFO_ENABLE | FCR_FIFO_CLEAR);
    800007c2:	469d                	li	a3,7
    800007c4:	00d78123          	sb	a3,2(a5)

  // enable transmit and receive interrupts.
  WriteReg(IER, IER_TX_ENABLE | IER_RX_ENABLE);
    800007c8:	00e780a3          	sb	a4,1(a5)

  initlock(&uart_tx_lock, "uart");
    800007cc:	00008597          	auipc	a1,0x8
    800007d0:	88c58593          	addi	a1,a1,-1908 # 80008058 <digits+0x18>
    800007d4:	00010517          	auipc	a0,0x10
    800007d8:	34450513          	addi	a0,a0,836 # 80010b18 <uart_tx_lock>
    800007dc:	00000097          	auipc	ra,0x0
    800007e0:	36a080e7          	jalr	874(ra) # 80000b46 <initlock>
}
    800007e4:	60a2                	ld	ra,8(sp)
    800007e6:	6402                	ld	s0,0(sp)
    800007e8:	0141                	addi	sp,sp,16
    800007ea:	8082                	ret

00000000800007ec <uartputc_sync>:
// use interrupts, for use by kernel printf() and
// to echo characters. it spins waiting for the uart's
// output register to be empty.
void
uartputc_sync(int c)
{
    800007ec:	1101                	addi	sp,sp,-32
    800007ee:	ec06                	sd	ra,24(sp)
    800007f0:	e822                	sd	s0,16(sp)
    800007f2:	e426                	sd	s1,8(sp)
    800007f4:	1000                	addi	s0,sp,32
    800007f6:	84aa                	mv	s1,a0
  push_off();
    800007f8:	00000097          	auipc	ra,0x0
    800007fc:	392080e7          	jalr	914(ra) # 80000b8a <push_off>

  if(panicked){
    80000800:	00008797          	auipc	a5,0x8
    80000804:	0d07a783          	lw	a5,208(a5) # 800088d0 <panicked>
    for(;;)
      ;
  }

  // wait for Transmit Holding Empty to be set in LSR.
  while((ReadReg(LSR) & LSR_TX_IDLE) == 0)
    80000808:	10000737          	lui	a4,0x10000
  if(panicked){
    8000080c:	c391                	beqz	a5,80000810 <uartputc_sync+0x24>
    for(;;)
    8000080e:	a001                	j	8000080e <uartputc_sync+0x22>
  while((ReadReg(LSR) & LSR_TX_IDLE) == 0)
    80000810:	00574783          	lbu	a5,5(a4) # 10000005 <_entry-0x6ffffffb>
    80000814:	0207f793          	andi	a5,a5,32
    80000818:	dfe5                	beqz	a5,80000810 <uartputc_sync+0x24>
    ;
  WriteReg(THR, c);
    8000081a:	0ff4f513          	zext.b	a0,s1
    8000081e:	100007b7          	lui	a5,0x10000
    80000822:	00a78023          	sb	a0,0(a5) # 10000000 <_entry-0x70000000>

  pop_off();
    80000826:	00000097          	auipc	ra,0x0
    8000082a:	416080e7          	jalr	1046(ra) # 80000c3c <pop_off>
}
    8000082e:	60e2                	ld	ra,24(sp)
    80000830:	6442                	ld	s0,16(sp)
    80000832:	64a2                	ld	s1,8(sp)
    80000834:	6105                	addi	sp,sp,32
    80000836:	8082                	ret

0000000080000838 <uartstart>:
// called from both the top- and bottom-half.
void
uartstart()
{
  while(1){
    if(uart_tx_w == uart_tx_r){
    80000838:	00008797          	auipc	a5,0x8
    8000083c:	0a07b783          	ld	a5,160(a5) # 800088d8 <uart_tx_r>
    80000840:	00008717          	auipc	a4,0x8
    80000844:	0a073703          	ld	a4,160(a4) # 800088e0 <uart_tx_w>
    80000848:	06f70a63          	beq	a4,a5,800008bc <uartstart+0x84>
{
    8000084c:	7139                	addi	sp,sp,-64
    8000084e:	fc06                	sd	ra,56(sp)
    80000850:	f822                	sd	s0,48(sp)
    80000852:	f426                	sd	s1,40(sp)
    80000854:	f04a                	sd	s2,32(sp)
    80000856:	ec4e                	sd	s3,24(sp)
    80000858:	e852                	sd	s4,16(sp)
    8000085a:	e456                	sd	s5,8(sp)
    8000085c:	0080                	addi	s0,sp,64
      // transmit buffer is empty.
      return;
    }
    
    if((ReadReg(LSR) & LSR_TX_IDLE) == 0){
    8000085e:	10000937          	lui	s2,0x10000
      // so we cannot give it another byte.
      // it will interrupt when it's ready for a new byte.
      return;
    }
    
    int c = uart_tx_buf[uart_tx_r % UART_TX_BUF_SIZE];
    80000862:	00010a17          	auipc	s4,0x10
    80000866:	2b6a0a13          	addi	s4,s4,694 # 80010b18 <uart_tx_lock>
    uart_tx_r += 1;
    8000086a:	00008497          	auipc	s1,0x8
    8000086e:	06e48493          	addi	s1,s1,110 # 800088d8 <uart_tx_r>
    if(uart_tx_w == uart_tx_r){
    80000872:	00008997          	auipc	s3,0x8
    80000876:	06e98993          	addi	s3,s3,110 # 800088e0 <uart_tx_w>
    if((ReadReg(LSR) & LSR_TX_IDLE) == 0){
    8000087a:	00594703          	lbu	a4,5(s2) # 10000005 <_entry-0x6ffffffb>
    8000087e:	02077713          	andi	a4,a4,32
    80000882:	c705                	beqz	a4,800008aa <uartstart+0x72>
    int c = uart_tx_buf[uart_tx_r % UART_TX_BUF_SIZE];
    80000884:	01f7f713          	andi	a4,a5,31
    80000888:	9752                	add	a4,a4,s4
    8000088a:	01874a83          	lbu	s5,24(a4)
    uart_tx_r += 1;
    8000088e:	0785                	addi	a5,a5,1
    80000890:	e09c                	sd	a5,0(s1)
    
    // maybe uartputc() is waiting for space in the buffer.
    wakeup(&uart_tx_r);
    80000892:	8526                	mv	a0,s1
    80000894:	00002097          	auipc	ra,0x2
    80000898:	b50080e7          	jalr	-1200(ra) # 800023e4 <wakeup>
    
    WriteReg(THR, c);
    8000089c:	01590023          	sb	s5,0(s2)
    if(uart_tx_w == uart_tx_r){
    800008a0:	609c                	ld	a5,0(s1)
    800008a2:	0009b703          	ld	a4,0(s3)
    800008a6:	fcf71ae3          	bne	a4,a5,8000087a <uartstart+0x42>
  }
}
    800008aa:	70e2                	ld	ra,56(sp)
    800008ac:	7442                	ld	s0,48(sp)
    800008ae:	74a2                	ld	s1,40(sp)
    800008b0:	7902                	ld	s2,32(sp)
    800008b2:	69e2                	ld	s3,24(sp)
    800008b4:	6a42                	ld	s4,16(sp)
    800008b6:	6aa2                	ld	s5,8(sp)
    800008b8:	6121                	addi	sp,sp,64
    800008ba:	8082                	ret
    800008bc:	8082                	ret

00000000800008be <uartputc>:
{
    800008be:	7179                	addi	sp,sp,-48
    800008c0:	f406                	sd	ra,40(sp)
    800008c2:	f022                	sd	s0,32(sp)
    800008c4:	ec26                	sd	s1,24(sp)
    800008c6:	e84a                	sd	s2,16(sp)
    800008c8:	e44e                	sd	s3,8(sp)
    800008ca:	e052                	sd	s4,0(sp)
    800008cc:	1800                	addi	s0,sp,48
    800008ce:	8a2a                	mv	s4,a0
  acquire(&uart_tx_lock);
    800008d0:	00010517          	auipc	a0,0x10
    800008d4:	24850513          	addi	a0,a0,584 # 80010b18 <uart_tx_lock>
    800008d8:	00000097          	auipc	ra,0x0
    800008dc:	2fe080e7          	jalr	766(ra) # 80000bd6 <acquire>
  if(panicked){
    800008e0:	00008797          	auipc	a5,0x8
    800008e4:	ff07a783          	lw	a5,-16(a5) # 800088d0 <panicked>
    800008e8:	e7c9                	bnez	a5,80000972 <uartputc+0xb4>
  while(uart_tx_w == uart_tx_r + UART_TX_BUF_SIZE){
    800008ea:	00008717          	auipc	a4,0x8
    800008ee:	ff673703          	ld	a4,-10(a4) # 800088e0 <uart_tx_w>
    800008f2:	00008797          	auipc	a5,0x8
    800008f6:	fe67b783          	ld	a5,-26(a5) # 800088d8 <uart_tx_r>
    800008fa:	02078793          	addi	a5,a5,32
    sleep(&uart_tx_r, &uart_tx_lock);
    800008fe:	00010997          	auipc	s3,0x10
    80000902:	21a98993          	addi	s3,s3,538 # 80010b18 <uart_tx_lock>
    80000906:	00008497          	auipc	s1,0x8
    8000090a:	fd248493          	addi	s1,s1,-46 # 800088d8 <uart_tx_r>
  while(uart_tx_w == uart_tx_r + UART_TX_BUF_SIZE){
    8000090e:	00008917          	auipc	s2,0x8
    80000912:	fd290913          	addi	s2,s2,-46 # 800088e0 <uart_tx_w>
    80000916:	00e79f63          	bne	a5,a4,80000934 <uartputc+0x76>
    sleep(&uart_tx_r, &uart_tx_lock);
    8000091a:	85ce                	mv	a1,s3
    8000091c:	8526                	mv	a0,s1
    8000091e:	00002097          	auipc	ra,0x2
    80000922:	a62080e7          	jalr	-1438(ra) # 80002380 <sleep>
  while(uart_tx_w == uart_tx_r + UART_TX_BUF_SIZE){
    80000926:	00093703          	ld	a4,0(s2)
    8000092a:	609c                	ld	a5,0(s1)
    8000092c:	02078793          	addi	a5,a5,32
    80000930:	fee785e3          	beq	a5,a4,8000091a <uartputc+0x5c>
  uart_tx_buf[uart_tx_w % UART_TX_BUF_SIZE] = c;
    80000934:	00010497          	auipc	s1,0x10
    80000938:	1e448493          	addi	s1,s1,484 # 80010b18 <uart_tx_lock>
    8000093c:	01f77793          	andi	a5,a4,31
    80000940:	97a6                	add	a5,a5,s1
    80000942:	01478c23          	sb	s4,24(a5)
  uart_tx_w += 1;
    80000946:	0705                	addi	a4,a4,1
    80000948:	00008797          	auipc	a5,0x8
    8000094c:	f8e7bc23          	sd	a4,-104(a5) # 800088e0 <uart_tx_w>
  uartstart();
    80000950:	00000097          	auipc	ra,0x0
    80000954:	ee8080e7          	jalr	-280(ra) # 80000838 <uartstart>
  release(&uart_tx_lock);
    80000958:	8526                	mv	a0,s1
    8000095a:	00000097          	auipc	ra,0x0
    8000095e:	342080e7          	jalr	834(ra) # 80000c9c <release>
}
    80000962:	70a2                	ld	ra,40(sp)
    80000964:	7402                	ld	s0,32(sp)
    80000966:	64e2                	ld	s1,24(sp)
    80000968:	6942                	ld	s2,16(sp)
    8000096a:	69a2                	ld	s3,8(sp)
    8000096c:	6a02                	ld	s4,0(sp)
    8000096e:	6145                	addi	sp,sp,48
    80000970:	8082                	ret
    for(;;)
    80000972:	a001                	j	80000972 <uartputc+0xb4>

0000000080000974 <uartgetc>:

// read one input character from the UART.
// return -1 if none is waiting.
int
uartgetc(void)
{
    80000974:	1141                	addi	sp,sp,-16
    80000976:	e422                	sd	s0,8(sp)
    80000978:	0800                	addi	s0,sp,16
  if(ReadReg(LSR) & 0x01){
    8000097a:	100007b7          	lui	a5,0x10000
    8000097e:	0057c783          	lbu	a5,5(a5) # 10000005 <_entry-0x6ffffffb>
    80000982:	8b85                	andi	a5,a5,1
    80000984:	cb81                	beqz	a5,80000994 <uartgetc+0x20>
    // input data is ready.
    return ReadReg(RHR);
    80000986:	100007b7          	lui	a5,0x10000
    8000098a:	0007c503          	lbu	a0,0(a5) # 10000000 <_entry-0x70000000>
  } else {
    return -1;
  }
}
    8000098e:	6422                	ld	s0,8(sp)
    80000990:	0141                	addi	sp,sp,16
    80000992:	8082                	ret
    return -1;
    80000994:	557d                	li	a0,-1
    80000996:	bfe5                	j	8000098e <uartgetc+0x1a>

0000000080000998 <uartintr>:
// handle a uart interrupt, raised because input has
// arrived, or the uart is ready for more output, or
// both. called from devintr().
void
uartintr(void)
{
    80000998:	1101                	addi	sp,sp,-32
    8000099a:	ec06                	sd	ra,24(sp)
    8000099c:	e822                	sd	s0,16(sp)
    8000099e:	e426                	sd	s1,8(sp)
    800009a0:	1000                	addi	s0,sp,32
  // read and process incoming characters.
  while(1){
    int c = uartgetc();
    if(c == -1)
    800009a2:	54fd                	li	s1,-1
    800009a4:	a029                	j	800009ae <uartintr+0x16>
      break;
    consoleintr(c);
    800009a6:	00000097          	auipc	ra,0x0
    800009aa:	918080e7          	jalr	-1768(ra) # 800002be <consoleintr>
    int c = uartgetc();
    800009ae:	00000097          	auipc	ra,0x0
    800009b2:	fc6080e7          	jalr	-58(ra) # 80000974 <uartgetc>
    if(c == -1)
    800009b6:	fe9518e3          	bne	a0,s1,800009a6 <uartintr+0xe>
  }

  // send buffered characters.
  acquire(&uart_tx_lock);
    800009ba:	00010497          	auipc	s1,0x10
    800009be:	15e48493          	addi	s1,s1,350 # 80010b18 <uart_tx_lock>
    800009c2:	8526                	mv	a0,s1
    800009c4:	00000097          	auipc	ra,0x0
    800009c8:	212080e7          	jalr	530(ra) # 80000bd6 <acquire>
  uartstart();
    800009cc:	00000097          	auipc	ra,0x0
    800009d0:	e6c080e7          	jalr	-404(ra) # 80000838 <uartstart>
  release(&uart_tx_lock);
    800009d4:	8526                	mv	a0,s1
    800009d6:	00000097          	auipc	ra,0x0
    800009da:	2c6080e7          	jalr	710(ra) # 80000c9c <release>
}
    800009de:	60e2                	ld	ra,24(sp)
    800009e0:	6442                	ld	s0,16(sp)
    800009e2:	64a2                	ld	s1,8(sp)
    800009e4:	6105                	addi	sp,sp,32
    800009e6:	8082                	ret

00000000800009e8 <kfree>:
// which normally should have been returned by a
// call to kalloc().  (The exception is when
// initializing the allocator; see kinit above.)
void
kfree(void *pa)
{
    800009e8:	1101                	addi	sp,sp,-32
    800009ea:	ec06                	sd	ra,24(sp)
    800009ec:	e822                	sd	s0,16(sp)
    800009ee:	e426                	sd	s1,8(sp)
    800009f0:	e04a                	sd	s2,0(sp)
    800009f2:	1000                	addi	s0,sp,32
  struct run *r;

  if(((uint64)pa % PGSIZE) != 0 || (char*)pa < end || (uint64)pa >= PHYSTOP)
    800009f4:	03451793          	slli	a5,a0,0x34
    800009f8:	ebb9                	bnez	a5,80000a4e <kfree+0x66>
    800009fa:	84aa                	mv	s1,a0
    800009fc:	00024797          	auipc	a5,0x24
    80000a00:	22478793          	addi	a5,a5,548 # 80024c20 <end>
    80000a04:	04f56563          	bltu	a0,a5,80000a4e <kfree+0x66>
    80000a08:	47c5                	li	a5,17
    80000a0a:	07ee                	slli	a5,a5,0x1b
    80000a0c:	04f57163          	bgeu	a0,a5,80000a4e <kfree+0x66>
    panic("kfree");

  // Fill with junk to catch dangling refs.
  memset(pa, 1, PGSIZE);
    80000a10:	6605                	lui	a2,0x1
    80000a12:	4585                	li	a1,1
    80000a14:	00000097          	auipc	ra,0x0
    80000a18:	2d0080e7          	jalr	720(ra) # 80000ce4 <memset>

  r = (struct run*)pa;

  acquire(&kmem.lock);
    80000a1c:	00010917          	auipc	s2,0x10
    80000a20:	13490913          	addi	s2,s2,308 # 80010b50 <kmem>
    80000a24:	854a                	mv	a0,s2
    80000a26:	00000097          	auipc	ra,0x0
    80000a2a:	1b0080e7          	jalr	432(ra) # 80000bd6 <acquire>
  r->next = kmem.freelist;
    80000a2e:	01893783          	ld	a5,24(s2)
    80000a32:	e09c                	sd	a5,0(s1)
  kmem.freelist = r;
    80000a34:	00993c23          	sd	s1,24(s2)
  release(&kmem.lock);
    80000a38:	854a                	mv	a0,s2
    80000a3a:	00000097          	auipc	ra,0x0
    80000a3e:	262080e7          	jalr	610(ra) # 80000c9c <release>
}
    80000a42:	60e2                	ld	ra,24(sp)
    80000a44:	6442                	ld	s0,16(sp)
    80000a46:	64a2                	ld	s1,8(sp)
    80000a48:	6902                	ld	s2,0(sp)
    80000a4a:	6105                	addi	sp,sp,32
    80000a4c:	8082                	ret
    panic("kfree");
    80000a4e:	00007517          	auipc	a0,0x7
    80000a52:	61250513          	addi	a0,a0,1554 # 80008060 <digits+0x20>
    80000a56:	00000097          	auipc	ra,0x0
    80000a5a:	aea080e7          	jalr	-1302(ra) # 80000540 <panic>

0000000080000a5e <freerange>:
{
    80000a5e:	7179                	addi	sp,sp,-48
    80000a60:	f406                	sd	ra,40(sp)
    80000a62:	f022                	sd	s0,32(sp)
    80000a64:	ec26                	sd	s1,24(sp)
    80000a66:	e84a                	sd	s2,16(sp)
    80000a68:	e44e                	sd	s3,8(sp)
    80000a6a:	e052                	sd	s4,0(sp)
    80000a6c:	1800                	addi	s0,sp,48
  p = (char*)PGROUNDUP((uint64)pa_start);
    80000a6e:	6785                	lui	a5,0x1
    80000a70:	fff78713          	addi	a4,a5,-1 # fff <_entry-0x7ffff001>
    80000a74:	00e504b3          	add	s1,a0,a4
    80000a78:	777d                	lui	a4,0xfffff
    80000a7a:	8cf9                	and	s1,s1,a4
  for(; p + PGSIZE <= (char*)pa_end; p += PGSIZE)
    80000a7c:	94be                	add	s1,s1,a5
    80000a7e:	0095ee63          	bltu	a1,s1,80000a9a <freerange+0x3c>
    80000a82:	892e                	mv	s2,a1
    kfree(p);
    80000a84:	7a7d                	lui	s4,0xfffff
  for(; p + PGSIZE <= (char*)pa_end; p += PGSIZE)
    80000a86:	6985                	lui	s3,0x1
    kfree(p);
    80000a88:	01448533          	add	a0,s1,s4
    80000a8c:	00000097          	auipc	ra,0x0
    80000a90:	f5c080e7          	jalr	-164(ra) # 800009e8 <kfree>
  for(; p + PGSIZE <= (char*)pa_end; p += PGSIZE)
    80000a94:	94ce                	add	s1,s1,s3
    80000a96:	fe9979e3          	bgeu	s2,s1,80000a88 <freerange+0x2a>
}
    80000a9a:	70a2                	ld	ra,40(sp)
    80000a9c:	7402                	ld	s0,32(sp)
    80000a9e:	64e2                	ld	s1,24(sp)
    80000aa0:	6942                	ld	s2,16(sp)
    80000aa2:	69a2                	ld	s3,8(sp)
    80000aa4:	6a02                	ld	s4,0(sp)
    80000aa6:	6145                	addi	sp,sp,48
    80000aa8:	8082                	ret

0000000080000aaa <kinit>:
{
    80000aaa:	1141                	addi	sp,sp,-16
    80000aac:	e406                	sd	ra,8(sp)
    80000aae:	e022                	sd	s0,0(sp)
    80000ab0:	0800                	addi	s0,sp,16
  initlock(&kmem.lock, "kmem");
    80000ab2:	00007597          	auipc	a1,0x7
    80000ab6:	5b658593          	addi	a1,a1,1462 # 80008068 <digits+0x28>
    80000aba:	00010517          	auipc	a0,0x10
    80000abe:	09650513          	addi	a0,a0,150 # 80010b50 <kmem>
    80000ac2:	00000097          	auipc	ra,0x0
    80000ac6:	084080e7          	jalr	132(ra) # 80000b46 <initlock>
  freerange(end, (void*)PHYSTOP);
    80000aca:	45c5                	li	a1,17
    80000acc:	05ee                	slli	a1,a1,0x1b
    80000ace:	00024517          	auipc	a0,0x24
    80000ad2:	15250513          	addi	a0,a0,338 # 80024c20 <end>
    80000ad6:	00000097          	auipc	ra,0x0
    80000ada:	f88080e7          	jalr	-120(ra) # 80000a5e <freerange>
}
    80000ade:	60a2                	ld	ra,8(sp)
    80000ae0:	6402                	ld	s0,0(sp)
    80000ae2:	0141                	addi	sp,sp,16
    80000ae4:	8082                	ret

0000000080000ae6 <kalloc>:
// Allocate one 4096-byte page of physical memory.
// Returns a pointer that the kernel can use.
// Returns 0 if the memory cannot be allocated.
void *
kalloc(void)
{
    80000ae6:	1101                	addi	sp,sp,-32
    80000ae8:	ec06                	sd	ra,24(sp)
    80000aea:	e822                	sd	s0,16(sp)
    80000aec:	e426                	sd	s1,8(sp)
    80000aee:	1000                	addi	s0,sp,32
  struct run *r;

  acquire(&kmem.lock);
    80000af0:	00010497          	auipc	s1,0x10
    80000af4:	06048493          	addi	s1,s1,96 # 80010b50 <kmem>
    80000af8:	8526                	mv	a0,s1
    80000afa:	00000097          	auipc	ra,0x0
    80000afe:	0dc080e7          	jalr	220(ra) # 80000bd6 <acquire>
  r = kmem.freelist;
    80000b02:	6c84                	ld	s1,24(s1)
  if(r)
    80000b04:	c885                	beqz	s1,80000b34 <kalloc+0x4e>
    kmem.freelist = r->next;
    80000b06:	609c                	ld	a5,0(s1)
    80000b08:	00010517          	auipc	a0,0x10
    80000b0c:	04850513          	addi	a0,a0,72 # 80010b50 <kmem>
    80000b10:	ed1c                	sd	a5,24(a0)
  release(&kmem.lock);
    80000b12:	00000097          	auipc	ra,0x0
    80000b16:	18a080e7          	jalr	394(ra) # 80000c9c <release>

  if(r)
    memset((char*)r, 5, PGSIZE); // fill with junk
    80000b1a:	6605                	lui	a2,0x1
    80000b1c:	4595                	li	a1,5
    80000b1e:	8526                	mv	a0,s1
    80000b20:	00000097          	auipc	ra,0x0
    80000b24:	1c4080e7          	jalr	452(ra) # 80000ce4 <memset>
  return (void*)r;
}
    80000b28:	8526                	mv	a0,s1
    80000b2a:	60e2                	ld	ra,24(sp)
    80000b2c:	6442                	ld	s0,16(sp)
    80000b2e:	64a2                	ld	s1,8(sp)
    80000b30:	6105                	addi	sp,sp,32
    80000b32:	8082                	ret
  release(&kmem.lock);
    80000b34:	00010517          	auipc	a0,0x10
    80000b38:	01c50513          	addi	a0,a0,28 # 80010b50 <kmem>
    80000b3c:	00000097          	auipc	ra,0x0
    80000b40:	160080e7          	jalr	352(ra) # 80000c9c <release>
  if(r)
    80000b44:	b7d5                	j	80000b28 <kalloc+0x42>

0000000080000b46 <initlock>:
#include "riscv.h"
#include "proc.h"
#include "defs.h"

void initlock(struct spinlock *lk, char *name)
{
    80000b46:	1141                	addi	sp,sp,-16
    80000b48:	e422                	sd	s0,8(sp)
    80000b4a:	0800                	addi	s0,sp,16
  lk->name = name;
    80000b4c:	e50c                	sd	a1,8(a0)
  lk->locked = 0;
    80000b4e:	00052023          	sw	zero,0(a0)
  lk->cpu = 0;
    80000b52:	00053823          	sd	zero,16(a0)
}
    80000b56:	6422                	ld	s0,8(sp)
    80000b58:	0141                	addi	sp,sp,16
    80000b5a:	8082                	ret

0000000080000b5c <holding>:
// Check whether this cpu is holding the lock.
// Interrupts must be off.
int holding(struct spinlock *lk)
{
  int r;
  r = (lk->locked && lk->cpu == mycpu());
    80000b5c:	411c                	lw	a5,0(a0)
    80000b5e:	e399                	bnez	a5,80000b64 <holding+0x8>
    80000b60:	4501                	li	a0,0
  return r;
}
    80000b62:	8082                	ret
{
    80000b64:	1101                	addi	sp,sp,-32
    80000b66:	ec06                	sd	ra,24(sp)
    80000b68:	e822                	sd	s0,16(sp)
    80000b6a:	e426                	sd	s1,8(sp)
    80000b6c:	1000                	addi	s0,sp,32
  r = (lk->locked && lk->cpu == mycpu());
    80000b6e:	6904                	ld	s1,16(a0)
    80000b70:	00001097          	auipc	ra,0x1
    80000b74:	e3a080e7          	jalr	-454(ra) # 800019aa <mycpu>
    80000b78:	40a48533          	sub	a0,s1,a0
    80000b7c:	00153513          	seqz	a0,a0
}
    80000b80:	60e2                	ld	ra,24(sp)
    80000b82:	6442                	ld	s0,16(sp)
    80000b84:	64a2                	ld	s1,8(sp)
    80000b86:	6105                	addi	sp,sp,32
    80000b88:	8082                	ret

0000000080000b8a <push_off>:
// push_off/pop_off are like intr_off()/intr_on() except that they are matched:
// it takes two pop_off()s to undo two push_off()s.  Also, if interrupts
// are initially off, then push_off, pop_off leaves them off.

void push_off(void)
{
    80000b8a:	1101                	addi	sp,sp,-32
    80000b8c:	ec06                	sd	ra,24(sp)
    80000b8e:	e822                	sd	s0,16(sp)
    80000b90:	e426                	sd	s1,8(sp)
    80000b92:	1000                	addi	s0,sp,32
  asm volatile("csrr %0, sstatus" : "=r" (x) );
    80000b94:	100024f3          	csrr	s1,sstatus
    80000b98:	100027f3          	csrr	a5,sstatus
  w_sstatus(r_sstatus() & ~SSTATUS_SIE);
    80000b9c:	9bf5                	andi	a5,a5,-3
  asm volatile("csrw sstatus, %0" : : "r" (x));
    80000b9e:	10079073          	csrw	sstatus,a5
  int old = intr_get();

  intr_off();
  if (mycpu()->noff == 0)
    80000ba2:	00001097          	auipc	ra,0x1
    80000ba6:	e08080e7          	jalr	-504(ra) # 800019aa <mycpu>
    80000baa:	5d3c                	lw	a5,120(a0)
    80000bac:	cf89                	beqz	a5,80000bc6 <push_off+0x3c>
    mycpu()->intena = old;
  mycpu()->noff += 1;
    80000bae:	00001097          	auipc	ra,0x1
    80000bb2:	dfc080e7          	jalr	-516(ra) # 800019aa <mycpu>
    80000bb6:	5d3c                	lw	a5,120(a0)
    80000bb8:	2785                	addiw	a5,a5,1
    80000bba:	dd3c                	sw	a5,120(a0)
}
    80000bbc:	60e2                	ld	ra,24(sp)
    80000bbe:	6442                	ld	s0,16(sp)
    80000bc0:	64a2                	ld	s1,8(sp)
    80000bc2:	6105                	addi	sp,sp,32
    80000bc4:	8082                	ret
    mycpu()->intena = old;
    80000bc6:	00001097          	auipc	ra,0x1
    80000bca:	de4080e7          	jalr	-540(ra) # 800019aa <mycpu>
  return (x & SSTATUS_SIE) != 0;
    80000bce:	8085                	srli	s1,s1,0x1
    80000bd0:	8885                	andi	s1,s1,1
    80000bd2:	dd64                	sw	s1,124(a0)
    80000bd4:	bfe9                	j	80000bae <push_off+0x24>

0000000080000bd6 <acquire>:
{
    80000bd6:	1101                	addi	sp,sp,-32
    80000bd8:	ec06                	sd	ra,24(sp)
    80000bda:	e822                	sd	s0,16(sp)
    80000bdc:	e426                	sd	s1,8(sp)
    80000bde:	1000                	addi	s0,sp,32
    80000be0:	84aa                	mv	s1,a0
  push_off(); // disable interrupts to avoid deadlock.
    80000be2:	00000097          	auipc	ra,0x0
    80000be6:	fa8080e7          	jalr	-88(ra) # 80000b8a <push_off>
  if (holding(lk))
    80000bea:	8526                	mv	a0,s1
    80000bec:	00000097          	auipc	ra,0x0
    80000bf0:	f70080e7          	jalr	-144(ra) # 80000b5c <holding>
  while (__sync_lock_test_and_set(&lk->locked, 1) != 0)
    80000bf4:	4705                	li	a4,1
  if (holding(lk))
    80000bf6:	e115                	bnez	a0,80000c1a <acquire+0x44>
  while (__sync_lock_test_and_set(&lk->locked, 1) != 0)
    80000bf8:	87ba                	mv	a5,a4
    80000bfa:	0cf4a7af          	amoswap.w.aq	a5,a5,(s1)
    80000bfe:	2781                	sext.w	a5,a5
    80000c00:	ffe5                	bnez	a5,80000bf8 <acquire+0x22>
  __sync_synchronize();
    80000c02:	0ff0000f          	fence
  lk->cpu = mycpu();
    80000c06:	00001097          	auipc	ra,0x1
    80000c0a:	da4080e7          	jalr	-604(ra) # 800019aa <mycpu>
    80000c0e:	e888                	sd	a0,16(s1)
}
    80000c10:	60e2                	ld	ra,24(sp)
    80000c12:	6442                	ld	s0,16(sp)
    80000c14:	64a2                	ld	s1,8(sp)
    80000c16:	6105                	addi	sp,sp,32
    80000c18:	8082                	ret
    printf("panic: %s", lk->name);
    80000c1a:	648c                	ld	a1,8(s1)
    80000c1c:	00007517          	auipc	a0,0x7
    80000c20:	45450513          	addi	a0,a0,1108 # 80008070 <digits+0x30>
    80000c24:	00000097          	auipc	ra,0x0
    80000c28:	966080e7          	jalr	-1690(ra) # 8000058a <printf>
    panic("acquire");
    80000c2c:	00007517          	auipc	a0,0x7
    80000c30:	45450513          	addi	a0,a0,1108 # 80008080 <digits+0x40>
    80000c34:	00000097          	auipc	ra,0x0
    80000c38:	90c080e7          	jalr	-1780(ra) # 80000540 <panic>

0000000080000c3c <pop_off>:

void pop_off(void)
{
    80000c3c:	1141                	addi	sp,sp,-16
    80000c3e:	e406                	sd	ra,8(sp)
    80000c40:	e022                	sd	s0,0(sp)
    80000c42:	0800                	addi	s0,sp,16
  struct cpu *c = mycpu();
    80000c44:	00001097          	auipc	ra,0x1
    80000c48:	d66080e7          	jalr	-666(ra) # 800019aa <mycpu>
  asm volatile("csrr %0, sstatus" : "=r" (x) );
    80000c4c:	100027f3          	csrr	a5,sstatus
  return (x & SSTATUS_SIE) != 0;
    80000c50:	8b89                	andi	a5,a5,2
  if (intr_get())
    80000c52:	e78d                	bnez	a5,80000c7c <pop_off+0x40>
    panic("pop_off - interruptible");
  if (c->noff < 1)
    80000c54:	5d3c                	lw	a5,120(a0)
    80000c56:	02f05b63          	blez	a5,80000c8c <pop_off+0x50>
    panic("pop_off");
  c->noff -= 1;
    80000c5a:	37fd                	addiw	a5,a5,-1
    80000c5c:	0007871b          	sext.w	a4,a5
    80000c60:	dd3c                	sw	a5,120(a0)
  if (c->noff == 0 && c->intena)
    80000c62:	eb09                	bnez	a4,80000c74 <pop_off+0x38>
    80000c64:	5d7c                	lw	a5,124(a0)
    80000c66:	c799                	beqz	a5,80000c74 <pop_off+0x38>
  asm volatile("csrr %0, sstatus" : "=r" (x) );
    80000c68:	100027f3          	csrr	a5,sstatus
  w_sstatus(r_sstatus() | SSTATUS_SIE);
    80000c6c:	0027e793          	ori	a5,a5,2
  asm volatile("csrw sstatus, %0" : : "r" (x));
    80000c70:	10079073          	csrw	sstatus,a5
    intr_on();
}
    80000c74:	60a2                	ld	ra,8(sp)
    80000c76:	6402                	ld	s0,0(sp)
    80000c78:	0141                	addi	sp,sp,16
    80000c7a:	8082                	ret
    panic("pop_off - interruptible");
    80000c7c:	00007517          	auipc	a0,0x7
    80000c80:	40c50513          	addi	a0,a0,1036 # 80008088 <digits+0x48>
    80000c84:	00000097          	auipc	ra,0x0
    80000c88:	8bc080e7          	jalr	-1860(ra) # 80000540 <panic>
    panic("pop_off");
    80000c8c:	00007517          	auipc	a0,0x7
    80000c90:	41450513          	addi	a0,a0,1044 # 800080a0 <digits+0x60>
    80000c94:	00000097          	auipc	ra,0x0
    80000c98:	8ac080e7          	jalr	-1876(ra) # 80000540 <panic>

0000000080000c9c <release>:
{
    80000c9c:	1101                	addi	sp,sp,-32
    80000c9e:	ec06                	sd	ra,24(sp)
    80000ca0:	e822                	sd	s0,16(sp)
    80000ca2:	e426                	sd	s1,8(sp)
    80000ca4:	1000                	addi	s0,sp,32
    80000ca6:	84aa                	mv	s1,a0
  if (!holding(lk))
    80000ca8:	00000097          	auipc	ra,0x0
    80000cac:	eb4080e7          	jalr	-332(ra) # 80000b5c <holding>
    80000cb0:	c115                	beqz	a0,80000cd4 <release+0x38>
  lk->cpu = 0;
    80000cb2:	0004b823          	sd	zero,16(s1)
  __sync_synchronize();
    80000cb6:	0ff0000f          	fence
  __sync_lock_release(&lk->locked);
    80000cba:	0f50000f          	fence	iorw,ow
    80000cbe:	0804a02f          	amoswap.w	zero,zero,(s1)
  pop_off();
    80000cc2:	00000097          	auipc	ra,0x0
    80000cc6:	f7a080e7          	jalr	-134(ra) # 80000c3c <pop_off>
}
    80000cca:	60e2                	ld	ra,24(sp)
    80000ccc:	6442                	ld	s0,16(sp)
    80000cce:	64a2                	ld	s1,8(sp)
    80000cd0:	6105                	addi	sp,sp,32
    80000cd2:	8082                	ret
    panic("release");
    80000cd4:	00007517          	auipc	a0,0x7
    80000cd8:	3d450513          	addi	a0,a0,980 # 800080a8 <digits+0x68>
    80000cdc:	00000097          	auipc	ra,0x0
    80000ce0:	864080e7          	jalr	-1948(ra) # 80000540 <panic>

0000000080000ce4 <memset>:
#include "types.h"

void*
memset(void *dst, int c, uint n)
{
    80000ce4:	1141                	addi	sp,sp,-16
    80000ce6:	e422                	sd	s0,8(sp)
    80000ce8:	0800                	addi	s0,sp,16
  char *cdst = (char *) dst;
  int i;
  for(i = 0; i < n; i++){
    80000cea:	ca19                	beqz	a2,80000d00 <memset+0x1c>
    80000cec:	87aa                	mv	a5,a0
    80000cee:	1602                	slli	a2,a2,0x20
    80000cf0:	9201                	srli	a2,a2,0x20
    80000cf2:	00a60733          	add	a4,a2,a0
    cdst[i] = c;
    80000cf6:	00b78023          	sb	a1,0(a5)
  for(i = 0; i < n; i++){
    80000cfa:	0785                	addi	a5,a5,1
    80000cfc:	fee79de3          	bne	a5,a4,80000cf6 <memset+0x12>
  }
  return dst;
}
    80000d00:	6422                	ld	s0,8(sp)
    80000d02:	0141                	addi	sp,sp,16
    80000d04:	8082                	ret

0000000080000d06 <memcmp>:

int
memcmp(const void *v1, const void *v2, uint n)
{
    80000d06:	1141                	addi	sp,sp,-16
    80000d08:	e422                	sd	s0,8(sp)
    80000d0a:	0800                	addi	s0,sp,16
  const uchar *s1, *s2;

  s1 = v1;
  s2 = v2;
  while(n-- > 0){
    80000d0c:	ca05                	beqz	a2,80000d3c <memcmp+0x36>
    80000d0e:	fff6069b          	addiw	a3,a2,-1 # fff <_entry-0x7ffff001>
    80000d12:	1682                	slli	a3,a3,0x20
    80000d14:	9281                	srli	a3,a3,0x20
    80000d16:	0685                	addi	a3,a3,1
    80000d18:	96aa                	add	a3,a3,a0
    if(*s1 != *s2)
    80000d1a:	00054783          	lbu	a5,0(a0)
    80000d1e:	0005c703          	lbu	a4,0(a1)
    80000d22:	00e79863          	bne	a5,a4,80000d32 <memcmp+0x2c>
      return *s1 - *s2;
    s1++, s2++;
    80000d26:	0505                	addi	a0,a0,1
    80000d28:	0585                	addi	a1,a1,1
  while(n-- > 0){
    80000d2a:	fed518e3          	bne	a0,a3,80000d1a <memcmp+0x14>
  }

  return 0;
    80000d2e:	4501                	li	a0,0
    80000d30:	a019                	j	80000d36 <memcmp+0x30>
      return *s1 - *s2;
    80000d32:	40e7853b          	subw	a0,a5,a4
}
    80000d36:	6422                	ld	s0,8(sp)
    80000d38:	0141                	addi	sp,sp,16
    80000d3a:	8082                	ret
  return 0;
    80000d3c:	4501                	li	a0,0
    80000d3e:	bfe5                	j	80000d36 <memcmp+0x30>

0000000080000d40 <memmove>:

void*
memmove(void *dst, const void *src, uint n)
{
    80000d40:	1141                	addi	sp,sp,-16
    80000d42:	e422                	sd	s0,8(sp)
    80000d44:	0800                	addi	s0,sp,16
  const char *s;
  char *d;

  if(n == 0)
    80000d46:	c205                	beqz	a2,80000d66 <memmove+0x26>
    return dst;
  
  s = src;
  d = dst;
  if(s < d && s + n > d){
    80000d48:	02a5e263          	bltu	a1,a0,80000d6c <memmove+0x2c>
    s += n;
    d += n;
    while(n-- > 0)
      *--d = *--s;
  } else
    while(n-- > 0)
    80000d4c:	1602                	slli	a2,a2,0x20
    80000d4e:	9201                	srli	a2,a2,0x20
    80000d50:	00c587b3          	add	a5,a1,a2
{
    80000d54:	872a                	mv	a4,a0
      *d++ = *s++;
    80000d56:	0585                	addi	a1,a1,1
    80000d58:	0705                	addi	a4,a4,1 # fffffffffffff001 <end+0xffffffff7ffda3e1>
    80000d5a:	fff5c683          	lbu	a3,-1(a1)
    80000d5e:	fed70fa3          	sb	a3,-1(a4)
    while(n-- > 0)
    80000d62:	fef59ae3          	bne	a1,a5,80000d56 <memmove+0x16>

  return dst;
}
    80000d66:	6422                	ld	s0,8(sp)
    80000d68:	0141                	addi	sp,sp,16
    80000d6a:	8082                	ret
  if(s < d && s + n > d){
    80000d6c:	02061693          	slli	a3,a2,0x20
    80000d70:	9281                	srli	a3,a3,0x20
    80000d72:	00d58733          	add	a4,a1,a3
    80000d76:	fce57be3          	bgeu	a0,a4,80000d4c <memmove+0xc>
    d += n;
    80000d7a:	96aa                	add	a3,a3,a0
    while(n-- > 0)
    80000d7c:	fff6079b          	addiw	a5,a2,-1
    80000d80:	1782                	slli	a5,a5,0x20
    80000d82:	9381                	srli	a5,a5,0x20
    80000d84:	fff7c793          	not	a5,a5
    80000d88:	97ba                	add	a5,a5,a4
      *--d = *--s;
    80000d8a:	177d                	addi	a4,a4,-1
    80000d8c:	16fd                	addi	a3,a3,-1
    80000d8e:	00074603          	lbu	a2,0(a4)
    80000d92:	00c68023          	sb	a2,0(a3)
    while(n-- > 0)
    80000d96:	fee79ae3          	bne	a5,a4,80000d8a <memmove+0x4a>
    80000d9a:	b7f1                	j	80000d66 <memmove+0x26>

0000000080000d9c <memcpy>:

// memcpy exists to placate GCC.  Use memmove.
void*
memcpy(void *dst, const void *src, uint n)
{
    80000d9c:	1141                	addi	sp,sp,-16
    80000d9e:	e406                	sd	ra,8(sp)
    80000da0:	e022                	sd	s0,0(sp)
    80000da2:	0800                	addi	s0,sp,16
  return memmove(dst, src, n);
    80000da4:	00000097          	auipc	ra,0x0
    80000da8:	f9c080e7          	jalr	-100(ra) # 80000d40 <memmove>
}
    80000dac:	60a2                	ld	ra,8(sp)
    80000dae:	6402                	ld	s0,0(sp)
    80000db0:	0141                	addi	sp,sp,16
    80000db2:	8082                	ret

0000000080000db4 <strncmp>:

int
strncmp(const char *p, const char *q, uint n)
{
    80000db4:	1141                	addi	sp,sp,-16
    80000db6:	e422                	sd	s0,8(sp)
    80000db8:	0800                	addi	s0,sp,16
  while(n > 0 && *p && *p == *q)
    80000dba:	ce11                	beqz	a2,80000dd6 <strncmp+0x22>
    80000dbc:	00054783          	lbu	a5,0(a0)
    80000dc0:	cf89                	beqz	a5,80000dda <strncmp+0x26>
    80000dc2:	0005c703          	lbu	a4,0(a1)
    80000dc6:	00f71a63          	bne	a4,a5,80000dda <strncmp+0x26>
    n--, p++, q++;
    80000dca:	367d                	addiw	a2,a2,-1
    80000dcc:	0505                	addi	a0,a0,1
    80000dce:	0585                	addi	a1,a1,1
  while(n > 0 && *p && *p == *q)
    80000dd0:	f675                	bnez	a2,80000dbc <strncmp+0x8>
  if(n == 0)
    return 0;
    80000dd2:	4501                	li	a0,0
    80000dd4:	a809                	j	80000de6 <strncmp+0x32>
    80000dd6:	4501                	li	a0,0
    80000dd8:	a039                	j	80000de6 <strncmp+0x32>
  if(n == 0)
    80000dda:	ca09                	beqz	a2,80000dec <strncmp+0x38>
  return (uchar)*p - (uchar)*q;
    80000ddc:	00054503          	lbu	a0,0(a0)
    80000de0:	0005c783          	lbu	a5,0(a1)
    80000de4:	9d1d                	subw	a0,a0,a5
}
    80000de6:	6422                	ld	s0,8(sp)
    80000de8:	0141                	addi	sp,sp,16
    80000dea:	8082                	ret
    return 0;
    80000dec:	4501                	li	a0,0
    80000dee:	bfe5                	j	80000de6 <strncmp+0x32>

0000000080000df0 <strncpy>:

char*
strncpy(char *s, const char *t, int n)
{
    80000df0:	1141                	addi	sp,sp,-16
    80000df2:	e422                	sd	s0,8(sp)
    80000df4:	0800                	addi	s0,sp,16
  char *os;

  os = s;
  while(n-- > 0 && (*s++ = *t++) != 0)
    80000df6:	872a                	mv	a4,a0
    80000df8:	8832                	mv	a6,a2
    80000dfa:	367d                	addiw	a2,a2,-1
    80000dfc:	01005963          	blez	a6,80000e0e <strncpy+0x1e>
    80000e00:	0705                	addi	a4,a4,1
    80000e02:	0005c783          	lbu	a5,0(a1)
    80000e06:	fef70fa3          	sb	a5,-1(a4)
    80000e0a:	0585                	addi	a1,a1,1
    80000e0c:	f7f5                	bnez	a5,80000df8 <strncpy+0x8>
    ;
  while(n-- > 0)
    80000e0e:	86ba                	mv	a3,a4
    80000e10:	00c05c63          	blez	a2,80000e28 <strncpy+0x38>
    *s++ = 0;
    80000e14:	0685                	addi	a3,a3,1
    80000e16:	fe068fa3          	sb	zero,-1(a3)
  while(n-- > 0)
    80000e1a:	40d707bb          	subw	a5,a4,a3
    80000e1e:	37fd                	addiw	a5,a5,-1
    80000e20:	010787bb          	addw	a5,a5,a6
    80000e24:	fef048e3          	bgtz	a5,80000e14 <strncpy+0x24>
  return os;
}
    80000e28:	6422                	ld	s0,8(sp)
    80000e2a:	0141                	addi	sp,sp,16
    80000e2c:	8082                	ret

0000000080000e2e <safestrcpy>:

// Like strncpy but guaranteed to NUL-terminate.
char*
safestrcpy(char *s, const char *t, int n)
{
    80000e2e:	1141                	addi	sp,sp,-16
    80000e30:	e422                	sd	s0,8(sp)
    80000e32:	0800                	addi	s0,sp,16
  char *os;

  os = s;
  if(n <= 0)
    80000e34:	02c05363          	blez	a2,80000e5a <safestrcpy+0x2c>
    80000e38:	fff6069b          	addiw	a3,a2,-1
    80000e3c:	1682                	slli	a3,a3,0x20
    80000e3e:	9281                	srli	a3,a3,0x20
    80000e40:	96ae                	add	a3,a3,a1
    80000e42:	87aa                	mv	a5,a0
    return os;
  while(--n > 0 && (*s++ = *t++) != 0)
    80000e44:	00d58963          	beq	a1,a3,80000e56 <safestrcpy+0x28>
    80000e48:	0585                	addi	a1,a1,1
    80000e4a:	0785                	addi	a5,a5,1
    80000e4c:	fff5c703          	lbu	a4,-1(a1)
    80000e50:	fee78fa3          	sb	a4,-1(a5)
    80000e54:	fb65                	bnez	a4,80000e44 <safestrcpy+0x16>
    ;
  *s = 0;
    80000e56:	00078023          	sb	zero,0(a5)
  return os;
}
    80000e5a:	6422                	ld	s0,8(sp)
    80000e5c:	0141                	addi	sp,sp,16
    80000e5e:	8082                	ret

0000000080000e60 <strlen>:

int
strlen(const char *s)
{
    80000e60:	1141                	addi	sp,sp,-16
    80000e62:	e422                	sd	s0,8(sp)
    80000e64:	0800                	addi	s0,sp,16
  int n;

  for(n = 0; s[n]; n++)
    80000e66:	00054783          	lbu	a5,0(a0)
    80000e6a:	cf91                	beqz	a5,80000e86 <strlen+0x26>
    80000e6c:	0505                	addi	a0,a0,1
    80000e6e:	87aa                	mv	a5,a0
    80000e70:	4685                	li	a3,1
    80000e72:	9e89                	subw	a3,a3,a0
    80000e74:	00f6853b          	addw	a0,a3,a5
    80000e78:	0785                	addi	a5,a5,1
    80000e7a:	fff7c703          	lbu	a4,-1(a5)
    80000e7e:	fb7d                	bnez	a4,80000e74 <strlen+0x14>
    ;
  return n;
}
    80000e80:	6422                	ld	s0,8(sp)
    80000e82:	0141                	addi	sp,sp,16
    80000e84:	8082                	ret
  for(n = 0; s[n]; n++)
    80000e86:	4501                	li	a0,0
    80000e88:	bfe5                	j	80000e80 <strlen+0x20>

0000000080000e8a <main>:
volatile static int started = 0;

// start() jumps here in supervisor mode on all CPUs.
void
main()
{
    80000e8a:	1141                	addi	sp,sp,-16
    80000e8c:	e406                	sd	ra,8(sp)
    80000e8e:	e022                	sd	s0,0(sp)
    80000e90:	0800                	addi	s0,sp,16
  if(cpuid() == 0){
    80000e92:	00001097          	auipc	ra,0x1
    80000e96:	b08080e7          	jalr	-1272(ra) # 8000199a <cpuid>
    virtio_disk_init(); // emulated hard disk
    userinit();      // first user process
    __sync_synchronize();
    started = 1;
  } else {
    while(started == 0)
    80000e9a:	00008717          	auipc	a4,0x8
    80000e9e:	a4e70713          	addi	a4,a4,-1458 # 800088e8 <started>
  if(cpuid() == 0){
    80000ea2:	c139                	beqz	a0,80000ee8 <main+0x5e>
    while(started == 0)
    80000ea4:	431c                	lw	a5,0(a4)
    80000ea6:	2781                	sext.w	a5,a5
    80000ea8:	dff5                	beqz	a5,80000ea4 <main+0x1a>
      ;
    __sync_synchronize();
    80000eaa:	0ff0000f          	fence
    printf("hart %d starting\n", cpuid());
    80000eae:	00001097          	auipc	ra,0x1
    80000eb2:	aec080e7          	jalr	-1300(ra) # 8000199a <cpuid>
    80000eb6:	85aa                	mv	a1,a0
    80000eb8:	00007517          	auipc	a0,0x7
    80000ebc:	21050513          	addi	a0,a0,528 # 800080c8 <digits+0x88>
    80000ec0:	fffff097          	auipc	ra,0xfffff
    80000ec4:	6ca080e7          	jalr	1738(ra) # 8000058a <printf>
    kvminithart();    // turn on paging
    80000ec8:	00000097          	auipc	ra,0x0
    80000ecc:	0e0080e7          	jalr	224(ra) # 80000fa8 <kvminithart>
    trapinithart();   // install kernel trap vector
    80000ed0:	00002097          	auipc	ra,0x2
    80000ed4:	f30080e7          	jalr	-208(ra) # 80002e00 <trapinithart>
    plicinithart();   // ask PLIC for device interrupts
    80000ed8:	00005097          	auipc	ra,0x5
    80000edc:	578080e7          	jalr	1400(ra) # 80006450 <plicinithart>
  }

  scheduler();        
    80000ee0:	00001097          	auipc	ra,0x1
    80000ee4:	11a080e7          	jalr	282(ra) # 80001ffa <scheduler>
    consoleinit();
    80000ee8:	fffff097          	auipc	ra,0xfffff
    80000eec:	568080e7          	jalr	1384(ra) # 80000450 <consoleinit>
    printfinit();
    80000ef0:	00000097          	auipc	ra,0x0
    80000ef4:	87a080e7          	jalr	-1926(ra) # 8000076a <printfinit>
    printf("\n");
    80000ef8:	00007517          	auipc	a0,0x7
    80000efc:	1e050513          	addi	a0,a0,480 # 800080d8 <digits+0x98>
    80000f00:	fffff097          	auipc	ra,0xfffff
    80000f04:	68a080e7          	jalr	1674(ra) # 8000058a <printf>
    printf("xv6 kernel is booting\n");
    80000f08:	00007517          	auipc	a0,0x7
    80000f0c:	1a850513          	addi	a0,a0,424 # 800080b0 <digits+0x70>
    80000f10:	fffff097          	auipc	ra,0xfffff
    80000f14:	67a080e7          	jalr	1658(ra) # 8000058a <printf>
    printf("\n");
    80000f18:	00007517          	auipc	a0,0x7
    80000f1c:	1c050513          	addi	a0,a0,448 # 800080d8 <digits+0x98>
    80000f20:	fffff097          	auipc	ra,0xfffff
    80000f24:	66a080e7          	jalr	1642(ra) # 8000058a <printf>
    kinit();         // physical page allocator
    80000f28:	00000097          	auipc	ra,0x0
    80000f2c:	b82080e7          	jalr	-1150(ra) # 80000aaa <kinit>
    kvminit();       // create kernel page table
    80000f30:	00000097          	auipc	ra,0x0
    80000f34:	32e080e7          	jalr	814(ra) # 8000125e <kvminit>
    kvminithart();   // turn on paging
    80000f38:	00000097          	auipc	ra,0x0
    80000f3c:	070080e7          	jalr	112(ra) # 80000fa8 <kvminithart>
    procinit();      // process table
    80000f40:	00001097          	auipc	ra,0x1
    80000f44:	9a6080e7          	jalr	-1626(ra) # 800018e6 <procinit>
    trapinit();      // trap vectors
    80000f48:	00002097          	auipc	ra,0x2
    80000f4c:	e90080e7          	jalr	-368(ra) # 80002dd8 <trapinit>
    trapinithart();  // install kernel trap vector
    80000f50:	00002097          	auipc	ra,0x2
    80000f54:	eb0080e7          	jalr	-336(ra) # 80002e00 <trapinithart>
    plicinit();      // set up interrupt controller
    80000f58:	00005097          	auipc	ra,0x5
    80000f5c:	4e2080e7          	jalr	1250(ra) # 8000643a <plicinit>
    plicinithart();  // ask PLIC for device interrupts
    80000f60:	00005097          	auipc	ra,0x5
    80000f64:	4f0080e7          	jalr	1264(ra) # 80006450 <plicinithart>
    binit();         // buffer cache
    80000f68:	00002097          	auipc	ra,0x2
    80000f6c:	67e080e7          	jalr	1662(ra) # 800035e6 <binit>
    iinit();         // inode table
    80000f70:	00003097          	auipc	ra,0x3
    80000f74:	d1e080e7          	jalr	-738(ra) # 80003c8e <iinit>
    pinit();         // process table
    80000f78:	00002097          	auipc	ra,0x2
    80000f7c:	978080e7          	jalr	-1672(ra) # 800028f0 <pinit>
    fileinit();      // file table
    80000f80:	00004097          	auipc	ra,0x4
    80000f84:	cbc080e7          	jalr	-836(ra) # 80004c3c <fileinit>
    virtio_disk_init(); // emulated hard disk
    80000f88:	00005097          	auipc	ra,0x5
    80000f8c:	5d0080e7          	jalr	1488(ra) # 80006558 <virtio_disk_init>
    userinit();      // first user process
    80000f90:	00001097          	auipc	ra,0x1
    80000f94:	d3c080e7          	jalr	-708(ra) # 80001ccc <userinit>
    __sync_synchronize();
    80000f98:	0ff0000f          	fence
    started = 1;
    80000f9c:	4785                	li	a5,1
    80000f9e:	00008717          	auipc	a4,0x8
    80000fa2:	94f72523          	sw	a5,-1718(a4) # 800088e8 <started>
    80000fa6:	bf2d                	j	80000ee0 <main+0x56>

0000000080000fa8 <kvminithart>:

// Switch h/w page table register to the kernel's page table,
// and enable paging.
void
kvminithart()
{
    80000fa8:	1141                	addi	sp,sp,-16
    80000faa:	e422                	sd	s0,8(sp)
    80000fac:	0800                	addi	s0,sp,16
// flush the TLB.
static inline void
sfence_vma()
{
  // the zero, zero means flush all TLB entries.
  asm volatile("sfence.vma zero, zero");
    80000fae:	12000073          	sfence.vma
  // wait for any previous writes to the page table memory to finish.
  sfence_vma();

  w_satp(MAKE_SATP(kernel_pagetable));
    80000fb2:	00008797          	auipc	a5,0x8
    80000fb6:	93e7b783          	ld	a5,-1730(a5) # 800088f0 <kernel_pagetable>
    80000fba:	83b1                	srli	a5,a5,0xc
    80000fbc:	577d                	li	a4,-1
    80000fbe:	177e                	slli	a4,a4,0x3f
    80000fc0:	8fd9                	or	a5,a5,a4
  asm volatile("csrw satp, %0" : : "r" (x));
    80000fc2:	18079073          	csrw	satp,a5
  asm volatile("sfence.vma zero, zero");
    80000fc6:	12000073          	sfence.vma

  // flush stale entries from the TLB.
  sfence_vma();
}
    80000fca:	6422                	ld	s0,8(sp)
    80000fcc:	0141                	addi	sp,sp,16
    80000fce:	8082                	ret

0000000080000fd0 <walk>:
//   21..29 -- 9 bits of level-1 index.
//   12..20 -- 9 bits of level-0 index.
//    0..11 -- 12 bits of byte offset within the page.
pte_t *
walk(pagetable_t pagetable, uint64 va, int alloc)
{
    80000fd0:	7139                	addi	sp,sp,-64
    80000fd2:	fc06                	sd	ra,56(sp)
    80000fd4:	f822                	sd	s0,48(sp)
    80000fd6:	f426                	sd	s1,40(sp)
    80000fd8:	f04a                	sd	s2,32(sp)
    80000fda:	ec4e                	sd	s3,24(sp)
    80000fdc:	e852                	sd	s4,16(sp)
    80000fde:	e456                	sd	s5,8(sp)
    80000fe0:	e05a                	sd	s6,0(sp)
    80000fe2:	0080                	addi	s0,sp,64
    80000fe4:	84aa                	mv	s1,a0
    80000fe6:	89ae                	mv	s3,a1
    80000fe8:	8ab2                	mv	s5,a2
  if(va >= MAXVA)
    80000fea:	57fd                	li	a5,-1
    80000fec:	83e9                	srli	a5,a5,0x1a
    80000fee:	4a79                	li	s4,30
    panic("walk");

  for(int level = 2; level > 0; level--) {
    80000ff0:	4b31                	li	s6,12
  if(va >= MAXVA)
    80000ff2:	04b7f263          	bgeu	a5,a1,80001036 <walk+0x66>
    panic("walk");
    80000ff6:	00007517          	auipc	a0,0x7
    80000ffa:	0ea50513          	addi	a0,a0,234 # 800080e0 <digits+0xa0>
    80000ffe:	fffff097          	auipc	ra,0xfffff
    80001002:	542080e7          	jalr	1346(ra) # 80000540 <panic>
    pte_t *pte = &pagetable[PX(level, va)];
    if(*pte & PTE_V) {
      pagetable = (pagetable_t)PTE2PA(*pte);
    } else {
      if(!alloc || (pagetable = (pde_t*)kalloc()) == 0)
    80001006:	060a8663          	beqz	s5,80001072 <walk+0xa2>
    8000100a:	00000097          	auipc	ra,0x0
    8000100e:	adc080e7          	jalr	-1316(ra) # 80000ae6 <kalloc>
    80001012:	84aa                	mv	s1,a0
    80001014:	c529                	beqz	a0,8000105e <walk+0x8e>
        return 0;
      memset(pagetable, 0, PGSIZE);
    80001016:	6605                	lui	a2,0x1
    80001018:	4581                	li	a1,0
    8000101a:	00000097          	auipc	ra,0x0
    8000101e:	cca080e7          	jalr	-822(ra) # 80000ce4 <memset>
      *pte = PA2PTE(pagetable) | PTE_V;
    80001022:	00c4d793          	srli	a5,s1,0xc
    80001026:	07aa                	slli	a5,a5,0xa
    80001028:	0017e793          	ori	a5,a5,1
    8000102c:	00f93023          	sd	a5,0(s2)
  for(int level = 2; level > 0; level--) {
    80001030:	3a5d                	addiw	s4,s4,-9 # ffffffffffffeff7 <end+0xffffffff7ffda3d7>
    80001032:	036a0063          	beq	s4,s6,80001052 <walk+0x82>
    pte_t *pte = &pagetable[PX(level, va)];
    80001036:	0149d933          	srl	s2,s3,s4
    8000103a:	1ff97913          	andi	s2,s2,511
    8000103e:	090e                	slli	s2,s2,0x3
    80001040:	9926                	add	s2,s2,s1
    if(*pte & PTE_V) {
    80001042:	00093483          	ld	s1,0(s2)
    80001046:	0014f793          	andi	a5,s1,1
    8000104a:	dfd5                	beqz	a5,80001006 <walk+0x36>
      pagetable = (pagetable_t)PTE2PA(*pte);
    8000104c:	80a9                	srli	s1,s1,0xa
    8000104e:	04b2                	slli	s1,s1,0xc
    80001050:	b7c5                	j	80001030 <walk+0x60>
    }
  }
  return &pagetable[PX(0, va)];
    80001052:	00c9d513          	srli	a0,s3,0xc
    80001056:	1ff57513          	andi	a0,a0,511
    8000105a:	050e                	slli	a0,a0,0x3
    8000105c:	9526                	add	a0,a0,s1
}
    8000105e:	70e2                	ld	ra,56(sp)
    80001060:	7442                	ld	s0,48(sp)
    80001062:	74a2                	ld	s1,40(sp)
    80001064:	7902                	ld	s2,32(sp)
    80001066:	69e2                	ld	s3,24(sp)
    80001068:	6a42                	ld	s4,16(sp)
    8000106a:	6aa2                	ld	s5,8(sp)
    8000106c:	6b02                	ld	s6,0(sp)
    8000106e:	6121                	addi	sp,sp,64
    80001070:	8082                	ret
        return 0;
    80001072:	4501                	li	a0,0
    80001074:	b7ed                	j	8000105e <walk+0x8e>

0000000080001076 <walkaddr>:
walkaddr(pagetable_t pagetable, uint64 va)
{
  pte_t *pte;
  uint64 pa;

  if(va >= MAXVA)
    80001076:	57fd                	li	a5,-1
    80001078:	83e9                	srli	a5,a5,0x1a
    8000107a:	00b7f463          	bgeu	a5,a1,80001082 <walkaddr+0xc>
    return 0;
    8000107e:	4501                	li	a0,0
    return 0;
  if((*pte & PTE_U) == 0)
    return 0;
  pa = PTE2PA(*pte);
  return pa;
}
    80001080:	8082                	ret
{
    80001082:	1141                	addi	sp,sp,-16
    80001084:	e406                	sd	ra,8(sp)
    80001086:	e022                	sd	s0,0(sp)
    80001088:	0800                	addi	s0,sp,16
  pte = walk(pagetable, va, 0);
    8000108a:	4601                	li	a2,0
    8000108c:	00000097          	auipc	ra,0x0
    80001090:	f44080e7          	jalr	-188(ra) # 80000fd0 <walk>
  if(pte == 0)
    80001094:	c105                	beqz	a0,800010b4 <walkaddr+0x3e>
  if((*pte & PTE_V) == 0)
    80001096:	611c                	ld	a5,0(a0)
  if((*pte & PTE_U) == 0)
    80001098:	0117f693          	andi	a3,a5,17
    8000109c:	4745                	li	a4,17
    return 0;
    8000109e:	4501                	li	a0,0
  if((*pte & PTE_U) == 0)
    800010a0:	00e68663          	beq	a3,a4,800010ac <walkaddr+0x36>
}
    800010a4:	60a2                	ld	ra,8(sp)
    800010a6:	6402                	ld	s0,0(sp)
    800010a8:	0141                	addi	sp,sp,16
    800010aa:	8082                	ret
  pa = PTE2PA(*pte);
    800010ac:	83a9                	srli	a5,a5,0xa
    800010ae:	00c79513          	slli	a0,a5,0xc
  return pa;
    800010b2:	bfcd                	j	800010a4 <walkaddr+0x2e>
    return 0;
    800010b4:	4501                	li	a0,0
    800010b6:	b7fd                	j	800010a4 <walkaddr+0x2e>

00000000800010b8 <mappages>:
// physical addresses starting at pa. va and size might not
// be page-aligned. Returns 0 on success, -1 if walk() couldn't
// allocate a needed page-table page.
int
mappages(pagetable_t pagetable, uint64 va, uint64 size, uint64 pa, int perm)
{
    800010b8:	715d                	addi	sp,sp,-80
    800010ba:	e486                	sd	ra,72(sp)
    800010bc:	e0a2                	sd	s0,64(sp)
    800010be:	fc26                	sd	s1,56(sp)
    800010c0:	f84a                	sd	s2,48(sp)
    800010c2:	f44e                	sd	s3,40(sp)
    800010c4:	f052                	sd	s4,32(sp)
    800010c6:	ec56                	sd	s5,24(sp)
    800010c8:	e85a                	sd	s6,16(sp)
    800010ca:	e45e                	sd	s7,8(sp)
    800010cc:	0880                	addi	s0,sp,80
  uint64 a, last;
  pte_t *pte;

  if(size == 0)
    800010ce:	c639                	beqz	a2,8000111c <mappages+0x64>
    800010d0:	8aaa                	mv	s5,a0
    800010d2:	8b3a                	mv	s6,a4
    panic("mappages: size");
  
  a = PGROUNDDOWN(va);
    800010d4:	777d                	lui	a4,0xfffff
    800010d6:	00e5f7b3          	and	a5,a1,a4
  last = PGROUNDDOWN(va + size - 1);
    800010da:	fff58993          	addi	s3,a1,-1
    800010de:	99b2                	add	s3,s3,a2
    800010e0:	00e9f9b3          	and	s3,s3,a4
  a = PGROUNDDOWN(va);
    800010e4:	893e                	mv	s2,a5
    800010e6:	40f68a33          	sub	s4,a3,a5
    if(*pte & PTE_V)
      panic("mappages: remap");
    *pte = PA2PTE(pa) | perm | PTE_V;
    if(a == last)
      break;
    a += PGSIZE;
    800010ea:	6b85                	lui	s7,0x1
    800010ec:	012a04b3          	add	s1,s4,s2
    if((pte = walk(pagetable, a, 1)) == 0)
    800010f0:	4605                	li	a2,1
    800010f2:	85ca                	mv	a1,s2
    800010f4:	8556                	mv	a0,s5
    800010f6:	00000097          	auipc	ra,0x0
    800010fa:	eda080e7          	jalr	-294(ra) # 80000fd0 <walk>
    800010fe:	cd1d                	beqz	a0,8000113c <mappages+0x84>
    if(*pte & PTE_V)
    80001100:	611c                	ld	a5,0(a0)
    80001102:	8b85                	andi	a5,a5,1
    80001104:	e785                	bnez	a5,8000112c <mappages+0x74>
    *pte = PA2PTE(pa) | perm | PTE_V;
    80001106:	80b1                	srli	s1,s1,0xc
    80001108:	04aa                	slli	s1,s1,0xa
    8000110a:	0164e4b3          	or	s1,s1,s6
    8000110e:	0014e493          	ori	s1,s1,1
    80001112:	e104                	sd	s1,0(a0)
    if(a == last)
    80001114:	05390063          	beq	s2,s3,80001154 <mappages+0x9c>
    a += PGSIZE;
    80001118:	995e                	add	s2,s2,s7
    if((pte = walk(pagetable, a, 1)) == 0)
    8000111a:	bfc9                	j	800010ec <mappages+0x34>
    panic("mappages: size");
    8000111c:	00007517          	auipc	a0,0x7
    80001120:	fcc50513          	addi	a0,a0,-52 # 800080e8 <digits+0xa8>
    80001124:	fffff097          	auipc	ra,0xfffff
    80001128:	41c080e7          	jalr	1052(ra) # 80000540 <panic>
      panic("mappages: remap");
    8000112c:	00007517          	auipc	a0,0x7
    80001130:	fcc50513          	addi	a0,a0,-52 # 800080f8 <digits+0xb8>
    80001134:	fffff097          	auipc	ra,0xfffff
    80001138:	40c080e7          	jalr	1036(ra) # 80000540 <panic>
      return -1;
    8000113c:	557d                	li	a0,-1
    pa += PGSIZE;
  }
  return 0;
}
    8000113e:	60a6                	ld	ra,72(sp)
    80001140:	6406                	ld	s0,64(sp)
    80001142:	74e2                	ld	s1,56(sp)
    80001144:	7942                	ld	s2,48(sp)
    80001146:	79a2                	ld	s3,40(sp)
    80001148:	7a02                	ld	s4,32(sp)
    8000114a:	6ae2                	ld	s5,24(sp)
    8000114c:	6b42                	ld	s6,16(sp)
    8000114e:	6ba2                	ld	s7,8(sp)
    80001150:	6161                	addi	sp,sp,80
    80001152:	8082                	ret
  return 0;
    80001154:	4501                	li	a0,0
    80001156:	b7e5                	j	8000113e <mappages+0x86>

0000000080001158 <kvmmap>:
{
    80001158:	1141                	addi	sp,sp,-16
    8000115a:	e406                	sd	ra,8(sp)
    8000115c:	e022                	sd	s0,0(sp)
    8000115e:	0800                	addi	s0,sp,16
    80001160:	87b6                	mv	a5,a3
  if(mappages(kpgtbl, va, sz, pa, perm) != 0)
    80001162:	86b2                	mv	a3,a2
    80001164:	863e                	mv	a2,a5
    80001166:	00000097          	auipc	ra,0x0
    8000116a:	f52080e7          	jalr	-174(ra) # 800010b8 <mappages>
    8000116e:	e509                	bnez	a0,80001178 <kvmmap+0x20>
}
    80001170:	60a2                	ld	ra,8(sp)
    80001172:	6402                	ld	s0,0(sp)
    80001174:	0141                	addi	sp,sp,16
    80001176:	8082                	ret
    panic("kvmmap");
    80001178:	00007517          	auipc	a0,0x7
    8000117c:	f9050513          	addi	a0,a0,-112 # 80008108 <digits+0xc8>
    80001180:	fffff097          	auipc	ra,0xfffff
    80001184:	3c0080e7          	jalr	960(ra) # 80000540 <panic>

0000000080001188 <kvmmake>:
{
    80001188:	1101                	addi	sp,sp,-32
    8000118a:	ec06                	sd	ra,24(sp)
    8000118c:	e822                	sd	s0,16(sp)
    8000118e:	e426                	sd	s1,8(sp)
    80001190:	e04a                	sd	s2,0(sp)
    80001192:	1000                	addi	s0,sp,32
  kpgtbl = (pagetable_t) kalloc();
    80001194:	00000097          	auipc	ra,0x0
    80001198:	952080e7          	jalr	-1710(ra) # 80000ae6 <kalloc>
    8000119c:	84aa                	mv	s1,a0
  memset(kpgtbl, 0, PGSIZE);
    8000119e:	6605                	lui	a2,0x1
    800011a0:	4581                	li	a1,0
    800011a2:	00000097          	auipc	ra,0x0
    800011a6:	b42080e7          	jalr	-1214(ra) # 80000ce4 <memset>
  kvmmap(kpgtbl, UART0, UART0, PGSIZE, PTE_R | PTE_W);
    800011aa:	4719                	li	a4,6
    800011ac:	6685                	lui	a3,0x1
    800011ae:	10000637          	lui	a2,0x10000
    800011b2:	100005b7          	lui	a1,0x10000
    800011b6:	8526                	mv	a0,s1
    800011b8:	00000097          	auipc	ra,0x0
    800011bc:	fa0080e7          	jalr	-96(ra) # 80001158 <kvmmap>
  kvmmap(kpgtbl, VIRTIO0, VIRTIO0, PGSIZE, PTE_R | PTE_W);
    800011c0:	4719                	li	a4,6
    800011c2:	6685                	lui	a3,0x1
    800011c4:	10001637          	lui	a2,0x10001
    800011c8:	100015b7          	lui	a1,0x10001
    800011cc:	8526                	mv	a0,s1
    800011ce:	00000097          	auipc	ra,0x0
    800011d2:	f8a080e7          	jalr	-118(ra) # 80001158 <kvmmap>
  kvmmap(kpgtbl, PLIC, PLIC, 0x400000, PTE_R | PTE_W);
    800011d6:	4719                	li	a4,6
    800011d8:	004006b7          	lui	a3,0x400
    800011dc:	0c000637          	lui	a2,0xc000
    800011e0:	0c0005b7          	lui	a1,0xc000
    800011e4:	8526                	mv	a0,s1
    800011e6:	00000097          	auipc	ra,0x0
    800011ea:	f72080e7          	jalr	-142(ra) # 80001158 <kvmmap>
  kvmmap(kpgtbl, KERNBASE, KERNBASE, (uint64)etext-KERNBASE, PTE_R | PTE_X);
    800011ee:	00007917          	auipc	s2,0x7
    800011f2:	e1290913          	addi	s2,s2,-494 # 80008000 <etext>
    800011f6:	4729                	li	a4,10
    800011f8:	80007697          	auipc	a3,0x80007
    800011fc:	e0868693          	addi	a3,a3,-504 # 8000 <_entry-0x7fff8000>
    80001200:	4605                	li	a2,1
    80001202:	067e                	slli	a2,a2,0x1f
    80001204:	85b2                	mv	a1,a2
    80001206:	8526                	mv	a0,s1
    80001208:	00000097          	auipc	ra,0x0
    8000120c:	f50080e7          	jalr	-176(ra) # 80001158 <kvmmap>
  kvmmap(kpgtbl, (uint64)etext, (uint64)etext, PHYSTOP-(uint64)etext, PTE_R | PTE_W);
    80001210:	4719                	li	a4,6
    80001212:	46c5                	li	a3,17
    80001214:	06ee                	slli	a3,a3,0x1b
    80001216:	412686b3          	sub	a3,a3,s2
    8000121a:	864a                	mv	a2,s2
    8000121c:	85ca                	mv	a1,s2
    8000121e:	8526                	mv	a0,s1
    80001220:	00000097          	auipc	ra,0x0
    80001224:	f38080e7          	jalr	-200(ra) # 80001158 <kvmmap>
  kvmmap(kpgtbl, TRAMPOLINE, (uint64)trampoline, PGSIZE, PTE_R | PTE_X);
    80001228:	4729                	li	a4,10
    8000122a:	6685                	lui	a3,0x1
    8000122c:	00006617          	auipc	a2,0x6
    80001230:	dd460613          	addi	a2,a2,-556 # 80007000 <_trampoline>
    80001234:	040005b7          	lui	a1,0x4000
    80001238:	15fd                	addi	a1,a1,-1 # 3ffffff <_entry-0x7c000001>
    8000123a:	05b2                	slli	a1,a1,0xc
    8000123c:	8526                	mv	a0,s1
    8000123e:	00000097          	auipc	ra,0x0
    80001242:	f1a080e7          	jalr	-230(ra) # 80001158 <kvmmap>
  proc_mapstacks(kpgtbl);
    80001246:	8526                	mv	a0,s1
    80001248:	00000097          	auipc	ra,0x0
    8000124c:	608080e7          	jalr	1544(ra) # 80001850 <proc_mapstacks>
}
    80001250:	8526                	mv	a0,s1
    80001252:	60e2                	ld	ra,24(sp)
    80001254:	6442                	ld	s0,16(sp)
    80001256:	64a2                	ld	s1,8(sp)
    80001258:	6902                	ld	s2,0(sp)
    8000125a:	6105                	addi	sp,sp,32
    8000125c:	8082                	ret

000000008000125e <kvminit>:
{
    8000125e:	1141                	addi	sp,sp,-16
    80001260:	e406                	sd	ra,8(sp)
    80001262:	e022                	sd	s0,0(sp)
    80001264:	0800                	addi	s0,sp,16
  kernel_pagetable = kvmmake();
    80001266:	00000097          	auipc	ra,0x0
    8000126a:	f22080e7          	jalr	-222(ra) # 80001188 <kvmmake>
    8000126e:	00007797          	auipc	a5,0x7
    80001272:	68a7b123          	sd	a0,1666(a5) # 800088f0 <kernel_pagetable>
}
    80001276:	60a2                	ld	ra,8(sp)
    80001278:	6402                	ld	s0,0(sp)
    8000127a:	0141                	addi	sp,sp,16
    8000127c:	8082                	ret

000000008000127e <uvmunmap>:
// Remove npages of mappings starting from va. va must be
// page-aligned. The mappings must exist.
// Optionally free the physical memory.
void
uvmunmap(pagetable_t pagetable, uint64 va, uint64 npages, int do_free)
{
    8000127e:	715d                	addi	sp,sp,-80
    80001280:	e486                	sd	ra,72(sp)
    80001282:	e0a2                	sd	s0,64(sp)
    80001284:	fc26                	sd	s1,56(sp)
    80001286:	f84a                	sd	s2,48(sp)
    80001288:	f44e                	sd	s3,40(sp)
    8000128a:	f052                	sd	s4,32(sp)
    8000128c:	ec56                	sd	s5,24(sp)
    8000128e:	e85a                	sd	s6,16(sp)
    80001290:	e45e                	sd	s7,8(sp)
    80001292:	0880                	addi	s0,sp,80
  uint64 a;
  pte_t *pte;

  if((va % PGSIZE) != 0)
    80001294:	03459793          	slli	a5,a1,0x34
    80001298:	e795                	bnez	a5,800012c4 <uvmunmap+0x46>
    8000129a:	8a2a                	mv	s4,a0
    8000129c:	892e                	mv	s2,a1
    8000129e:	8ab6                	mv	s5,a3
    panic("uvmunmap: not aligned");

  for(a = va; a < va + npages*PGSIZE; a += PGSIZE){
    800012a0:	0632                	slli	a2,a2,0xc
    800012a2:	00b609b3          	add	s3,a2,a1
    if((pte = walk(pagetable, a, 0)) == 0)
      panic("uvmunmap: walk");
    if((*pte & PTE_V) == 0)
      panic("uvmunmap: not mapped");
    if(PTE_FLAGS(*pte) == PTE_V)
    800012a6:	4b85                	li	s7,1
  for(a = va; a < va + npages*PGSIZE; a += PGSIZE){
    800012a8:	6b05                	lui	s6,0x1
    800012aa:	0735e263          	bltu	a1,s3,8000130e <uvmunmap+0x90>
      uint64 pa = PTE2PA(*pte);
      kfree((void*)pa);
    }
    *pte = 0;
  }
}
    800012ae:	60a6                	ld	ra,72(sp)
    800012b0:	6406                	ld	s0,64(sp)
    800012b2:	74e2                	ld	s1,56(sp)
    800012b4:	7942                	ld	s2,48(sp)
    800012b6:	79a2                	ld	s3,40(sp)
    800012b8:	7a02                	ld	s4,32(sp)
    800012ba:	6ae2                	ld	s5,24(sp)
    800012bc:	6b42                	ld	s6,16(sp)
    800012be:	6ba2                	ld	s7,8(sp)
    800012c0:	6161                	addi	sp,sp,80
    800012c2:	8082                	ret
    panic("uvmunmap: not aligned");
    800012c4:	00007517          	auipc	a0,0x7
    800012c8:	e4c50513          	addi	a0,a0,-436 # 80008110 <digits+0xd0>
    800012cc:	fffff097          	auipc	ra,0xfffff
    800012d0:	274080e7          	jalr	628(ra) # 80000540 <panic>
      panic("uvmunmap: walk");
    800012d4:	00007517          	auipc	a0,0x7
    800012d8:	e5450513          	addi	a0,a0,-428 # 80008128 <digits+0xe8>
    800012dc:	fffff097          	auipc	ra,0xfffff
    800012e0:	264080e7          	jalr	612(ra) # 80000540 <panic>
      panic("uvmunmap: not mapped");
    800012e4:	00007517          	auipc	a0,0x7
    800012e8:	e5450513          	addi	a0,a0,-428 # 80008138 <digits+0xf8>
    800012ec:	fffff097          	auipc	ra,0xfffff
    800012f0:	254080e7          	jalr	596(ra) # 80000540 <panic>
      panic("uvmunmap: not a leaf");
    800012f4:	00007517          	auipc	a0,0x7
    800012f8:	e5c50513          	addi	a0,a0,-420 # 80008150 <digits+0x110>
    800012fc:	fffff097          	auipc	ra,0xfffff
    80001300:	244080e7          	jalr	580(ra) # 80000540 <panic>
    *pte = 0;
    80001304:	0004b023          	sd	zero,0(s1)
  for(a = va; a < va + npages*PGSIZE; a += PGSIZE){
    80001308:	995a                	add	s2,s2,s6
    8000130a:	fb3972e3          	bgeu	s2,s3,800012ae <uvmunmap+0x30>
    if((pte = walk(pagetable, a, 0)) == 0)
    8000130e:	4601                	li	a2,0
    80001310:	85ca                	mv	a1,s2
    80001312:	8552                	mv	a0,s4
    80001314:	00000097          	auipc	ra,0x0
    80001318:	cbc080e7          	jalr	-836(ra) # 80000fd0 <walk>
    8000131c:	84aa                	mv	s1,a0
    8000131e:	d95d                	beqz	a0,800012d4 <uvmunmap+0x56>
    if((*pte & PTE_V) == 0)
    80001320:	6108                	ld	a0,0(a0)
    80001322:	00157793          	andi	a5,a0,1
    80001326:	dfdd                	beqz	a5,800012e4 <uvmunmap+0x66>
    if(PTE_FLAGS(*pte) == PTE_V)
    80001328:	3ff57793          	andi	a5,a0,1023
    8000132c:	fd7784e3          	beq	a5,s7,800012f4 <uvmunmap+0x76>
    if(do_free){
    80001330:	fc0a8ae3          	beqz	s5,80001304 <uvmunmap+0x86>
      uint64 pa = PTE2PA(*pte);
    80001334:	8129                	srli	a0,a0,0xa
      kfree((void*)pa);
    80001336:	0532                	slli	a0,a0,0xc
    80001338:	fffff097          	auipc	ra,0xfffff
    8000133c:	6b0080e7          	jalr	1712(ra) # 800009e8 <kfree>
    80001340:	b7d1                	j	80001304 <uvmunmap+0x86>

0000000080001342 <uvmcreate>:

// create an empty user page table.
// returns 0 if out of memory.
pagetable_t
uvmcreate()
{
    80001342:	1101                	addi	sp,sp,-32
    80001344:	ec06                	sd	ra,24(sp)
    80001346:	e822                	sd	s0,16(sp)
    80001348:	e426                	sd	s1,8(sp)
    8000134a:	1000                	addi	s0,sp,32
  pagetable_t pagetable;
  pagetable = (pagetable_t) kalloc();
    8000134c:	fffff097          	auipc	ra,0xfffff
    80001350:	79a080e7          	jalr	1946(ra) # 80000ae6 <kalloc>
    80001354:	84aa                	mv	s1,a0
  if(pagetable == 0)
    80001356:	c519                	beqz	a0,80001364 <uvmcreate+0x22>
    return 0;
  memset(pagetable, 0, PGSIZE);
    80001358:	6605                	lui	a2,0x1
    8000135a:	4581                	li	a1,0
    8000135c:	00000097          	auipc	ra,0x0
    80001360:	988080e7          	jalr	-1656(ra) # 80000ce4 <memset>
  return pagetable;
}
    80001364:	8526                	mv	a0,s1
    80001366:	60e2                	ld	ra,24(sp)
    80001368:	6442                	ld	s0,16(sp)
    8000136a:	64a2                	ld	s1,8(sp)
    8000136c:	6105                	addi	sp,sp,32
    8000136e:	8082                	ret

0000000080001370 <uvmfirst>:
// Load the user initcode into address 0 of pagetable,
// for the very first process.
// sz must be less than a page.
void
uvmfirst(pagetable_t pagetable, uchar *src, uint sz)
{
    80001370:	7179                	addi	sp,sp,-48
    80001372:	f406                	sd	ra,40(sp)
    80001374:	f022                	sd	s0,32(sp)
    80001376:	ec26                	sd	s1,24(sp)
    80001378:	e84a                	sd	s2,16(sp)
    8000137a:	e44e                	sd	s3,8(sp)
    8000137c:	e052                	sd	s4,0(sp)
    8000137e:	1800                	addi	s0,sp,48
  char *mem;

  if(sz >= PGSIZE)
    80001380:	6785                	lui	a5,0x1
    80001382:	04f67863          	bgeu	a2,a5,800013d2 <uvmfirst+0x62>
    80001386:	8a2a                	mv	s4,a0
    80001388:	89ae                	mv	s3,a1
    8000138a:	84b2                	mv	s1,a2
    panic("uvmfirst: more than a page");
  mem = kalloc();
    8000138c:	fffff097          	auipc	ra,0xfffff
    80001390:	75a080e7          	jalr	1882(ra) # 80000ae6 <kalloc>
    80001394:	892a                	mv	s2,a0
  memset(mem, 0, PGSIZE);
    80001396:	6605                	lui	a2,0x1
    80001398:	4581                	li	a1,0
    8000139a:	00000097          	auipc	ra,0x0
    8000139e:	94a080e7          	jalr	-1718(ra) # 80000ce4 <memset>
  mappages(pagetable, 0, PGSIZE, (uint64)mem, PTE_W|PTE_R|PTE_X|PTE_U);
    800013a2:	4779                	li	a4,30
    800013a4:	86ca                	mv	a3,s2
    800013a6:	6605                	lui	a2,0x1
    800013a8:	4581                	li	a1,0
    800013aa:	8552                	mv	a0,s4
    800013ac:	00000097          	auipc	ra,0x0
    800013b0:	d0c080e7          	jalr	-756(ra) # 800010b8 <mappages>
  memmove(mem, src, sz);
    800013b4:	8626                	mv	a2,s1
    800013b6:	85ce                	mv	a1,s3
    800013b8:	854a                	mv	a0,s2
    800013ba:	00000097          	auipc	ra,0x0
    800013be:	986080e7          	jalr	-1658(ra) # 80000d40 <memmove>
}
    800013c2:	70a2                	ld	ra,40(sp)
    800013c4:	7402                	ld	s0,32(sp)
    800013c6:	64e2                	ld	s1,24(sp)
    800013c8:	6942                	ld	s2,16(sp)
    800013ca:	69a2                	ld	s3,8(sp)
    800013cc:	6a02                	ld	s4,0(sp)
    800013ce:	6145                	addi	sp,sp,48
    800013d0:	8082                	ret
    panic("uvmfirst: more than a page");
    800013d2:	00007517          	auipc	a0,0x7
    800013d6:	d9650513          	addi	a0,a0,-618 # 80008168 <digits+0x128>
    800013da:	fffff097          	auipc	ra,0xfffff
    800013de:	166080e7          	jalr	358(ra) # 80000540 <panic>

00000000800013e2 <uvmdealloc>:
// newsz.  oldsz and newsz need not be page-aligned, nor does newsz
// need to be less than oldsz.  oldsz can be larger than the actual
// process size.  Returns the new process size.
uint64
uvmdealloc(pagetable_t pagetable, uint64 oldsz, uint64 newsz)
{
    800013e2:	1101                	addi	sp,sp,-32
    800013e4:	ec06                	sd	ra,24(sp)
    800013e6:	e822                	sd	s0,16(sp)
    800013e8:	e426                	sd	s1,8(sp)
    800013ea:	1000                	addi	s0,sp,32
  if(newsz >= oldsz)
    return oldsz;
    800013ec:	84ae                	mv	s1,a1
  if(newsz >= oldsz)
    800013ee:	00b67d63          	bgeu	a2,a1,80001408 <uvmdealloc+0x26>
    800013f2:	84b2                	mv	s1,a2

  if(PGROUNDUP(newsz) < PGROUNDUP(oldsz)){
    800013f4:	6785                	lui	a5,0x1
    800013f6:	17fd                	addi	a5,a5,-1 # fff <_entry-0x7ffff001>
    800013f8:	00f60733          	add	a4,a2,a5
    800013fc:	76fd                	lui	a3,0xfffff
    800013fe:	8f75                	and	a4,a4,a3
    80001400:	97ae                	add	a5,a5,a1
    80001402:	8ff5                	and	a5,a5,a3
    80001404:	00f76863          	bltu	a4,a5,80001414 <uvmdealloc+0x32>
    int npages = (PGROUNDUP(oldsz) - PGROUNDUP(newsz)) / PGSIZE;
    uvmunmap(pagetable, PGROUNDUP(newsz), npages, 1);
  }

  return newsz;
}
    80001408:	8526                	mv	a0,s1
    8000140a:	60e2                	ld	ra,24(sp)
    8000140c:	6442                	ld	s0,16(sp)
    8000140e:	64a2                	ld	s1,8(sp)
    80001410:	6105                	addi	sp,sp,32
    80001412:	8082                	ret
    int npages = (PGROUNDUP(oldsz) - PGROUNDUP(newsz)) / PGSIZE;
    80001414:	8f99                	sub	a5,a5,a4
    80001416:	83b1                	srli	a5,a5,0xc
    uvmunmap(pagetable, PGROUNDUP(newsz), npages, 1);
    80001418:	4685                	li	a3,1
    8000141a:	0007861b          	sext.w	a2,a5
    8000141e:	85ba                	mv	a1,a4
    80001420:	00000097          	auipc	ra,0x0
    80001424:	e5e080e7          	jalr	-418(ra) # 8000127e <uvmunmap>
    80001428:	b7c5                	j	80001408 <uvmdealloc+0x26>

000000008000142a <uvmalloc>:
  if(newsz < oldsz)
    8000142a:	0ab66563          	bltu	a2,a1,800014d4 <uvmalloc+0xaa>
{
    8000142e:	7139                	addi	sp,sp,-64
    80001430:	fc06                	sd	ra,56(sp)
    80001432:	f822                	sd	s0,48(sp)
    80001434:	f426                	sd	s1,40(sp)
    80001436:	f04a                	sd	s2,32(sp)
    80001438:	ec4e                	sd	s3,24(sp)
    8000143a:	e852                	sd	s4,16(sp)
    8000143c:	e456                	sd	s5,8(sp)
    8000143e:	e05a                	sd	s6,0(sp)
    80001440:	0080                	addi	s0,sp,64
    80001442:	8aaa                	mv	s5,a0
    80001444:	8a32                	mv	s4,a2
  oldsz = PGROUNDUP(oldsz);
    80001446:	6785                	lui	a5,0x1
    80001448:	17fd                	addi	a5,a5,-1 # fff <_entry-0x7ffff001>
    8000144a:	95be                	add	a1,a1,a5
    8000144c:	77fd                	lui	a5,0xfffff
    8000144e:	00f5f9b3          	and	s3,a1,a5
  for(a = oldsz; a < newsz; a += PGSIZE){
    80001452:	08c9f363          	bgeu	s3,a2,800014d8 <uvmalloc+0xae>
    80001456:	894e                	mv	s2,s3
    if(mappages(pagetable, a, PGSIZE, (uint64)mem, PTE_R|PTE_U|xperm) != 0){
    80001458:	0126eb13          	ori	s6,a3,18
    mem = kalloc();
    8000145c:	fffff097          	auipc	ra,0xfffff
    80001460:	68a080e7          	jalr	1674(ra) # 80000ae6 <kalloc>
    80001464:	84aa                	mv	s1,a0
    if(mem == 0){
    80001466:	c51d                	beqz	a0,80001494 <uvmalloc+0x6a>
    memset(mem, 0, PGSIZE);
    80001468:	6605                	lui	a2,0x1
    8000146a:	4581                	li	a1,0
    8000146c:	00000097          	auipc	ra,0x0
    80001470:	878080e7          	jalr	-1928(ra) # 80000ce4 <memset>
    if(mappages(pagetable, a, PGSIZE, (uint64)mem, PTE_R|PTE_U|xperm) != 0){
    80001474:	875a                	mv	a4,s6
    80001476:	86a6                	mv	a3,s1
    80001478:	6605                	lui	a2,0x1
    8000147a:	85ca                	mv	a1,s2
    8000147c:	8556                	mv	a0,s5
    8000147e:	00000097          	auipc	ra,0x0
    80001482:	c3a080e7          	jalr	-966(ra) # 800010b8 <mappages>
    80001486:	e90d                	bnez	a0,800014b8 <uvmalloc+0x8e>
  for(a = oldsz; a < newsz; a += PGSIZE){
    80001488:	6785                	lui	a5,0x1
    8000148a:	993e                	add	s2,s2,a5
    8000148c:	fd4968e3          	bltu	s2,s4,8000145c <uvmalloc+0x32>
  return newsz;
    80001490:	8552                	mv	a0,s4
    80001492:	a809                	j	800014a4 <uvmalloc+0x7a>
      uvmdealloc(pagetable, a, oldsz);
    80001494:	864e                	mv	a2,s3
    80001496:	85ca                	mv	a1,s2
    80001498:	8556                	mv	a0,s5
    8000149a:	00000097          	auipc	ra,0x0
    8000149e:	f48080e7          	jalr	-184(ra) # 800013e2 <uvmdealloc>
      return 0;
    800014a2:	4501                	li	a0,0
}
    800014a4:	70e2                	ld	ra,56(sp)
    800014a6:	7442                	ld	s0,48(sp)
    800014a8:	74a2                	ld	s1,40(sp)
    800014aa:	7902                	ld	s2,32(sp)
    800014ac:	69e2                	ld	s3,24(sp)
    800014ae:	6a42                	ld	s4,16(sp)
    800014b0:	6aa2                	ld	s5,8(sp)
    800014b2:	6b02                	ld	s6,0(sp)
    800014b4:	6121                	addi	sp,sp,64
    800014b6:	8082                	ret
      kfree(mem);
    800014b8:	8526                	mv	a0,s1
    800014ba:	fffff097          	auipc	ra,0xfffff
    800014be:	52e080e7          	jalr	1326(ra) # 800009e8 <kfree>
      uvmdealloc(pagetable, a, oldsz);
    800014c2:	864e                	mv	a2,s3
    800014c4:	85ca                	mv	a1,s2
    800014c6:	8556                	mv	a0,s5
    800014c8:	00000097          	auipc	ra,0x0
    800014cc:	f1a080e7          	jalr	-230(ra) # 800013e2 <uvmdealloc>
      return 0;
    800014d0:	4501                	li	a0,0
    800014d2:	bfc9                	j	800014a4 <uvmalloc+0x7a>
    return oldsz;
    800014d4:	852e                	mv	a0,a1
}
    800014d6:	8082                	ret
  return newsz;
    800014d8:	8532                	mv	a0,a2
    800014da:	b7e9                	j	800014a4 <uvmalloc+0x7a>

00000000800014dc <freewalk>:

// Recursively free page-table pages.
// All leaf mappings must already have been removed.
void
freewalk(pagetable_t pagetable)
{
    800014dc:	7179                	addi	sp,sp,-48
    800014de:	f406                	sd	ra,40(sp)
    800014e0:	f022                	sd	s0,32(sp)
    800014e2:	ec26                	sd	s1,24(sp)
    800014e4:	e84a                	sd	s2,16(sp)
    800014e6:	e44e                	sd	s3,8(sp)
    800014e8:	e052                	sd	s4,0(sp)
    800014ea:	1800                	addi	s0,sp,48
    800014ec:	8a2a                	mv	s4,a0
  // there are 2^9 = 512 PTEs in a page table.
  for(int i = 0; i < 512; i++){
    800014ee:	84aa                	mv	s1,a0
    800014f0:	6905                	lui	s2,0x1
    800014f2:	992a                	add	s2,s2,a0
    pte_t pte = pagetable[i];
    if((pte & PTE_V) && (pte & (PTE_R|PTE_W|PTE_X)) == 0){
    800014f4:	4985                	li	s3,1
    800014f6:	a829                	j	80001510 <freewalk+0x34>
      // this PTE points to a lower-level page table.
      uint64 child = PTE2PA(pte);
    800014f8:	83a9                	srli	a5,a5,0xa
      freewalk((pagetable_t)child);
    800014fa:	00c79513          	slli	a0,a5,0xc
    800014fe:	00000097          	auipc	ra,0x0
    80001502:	fde080e7          	jalr	-34(ra) # 800014dc <freewalk>
      pagetable[i] = 0;
    80001506:	0004b023          	sd	zero,0(s1)
  for(int i = 0; i < 512; i++){
    8000150a:	04a1                	addi	s1,s1,8
    8000150c:	03248163          	beq	s1,s2,8000152e <freewalk+0x52>
    pte_t pte = pagetable[i];
    80001510:	609c                	ld	a5,0(s1)
    if((pte & PTE_V) && (pte & (PTE_R|PTE_W|PTE_X)) == 0){
    80001512:	00f7f713          	andi	a4,a5,15
    80001516:	ff3701e3          	beq	a4,s3,800014f8 <freewalk+0x1c>
    } else if(pte & PTE_V){
    8000151a:	8b85                	andi	a5,a5,1
    8000151c:	d7fd                	beqz	a5,8000150a <freewalk+0x2e>
      panic("freewalk: leaf");
    8000151e:	00007517          	auipc	a0,0x7
    80001522:	c6a50513          	addi	a0,a0,-918 # 80008188 <digits+0x148>
    80001526:	fffff097          	auipc	ra,0xfffff
    8000152a:	01a080e7          	jalr	26(ra) # 80000540 <panic>
    }
  }
  kfree((void*)pagetable);
    8000152e:	8552                	mv	a0,s4
    80001530:	fffff097          	auipc	ra,0xfffff
    80001534:	4b8080e7          	jalr	1208(ra) # 800009e8 <kfree>
}
    80001538:	70a2                	ld	ra,40(sp)
    8000153a:	7402                	ld	s0,32(sp)
    8000153c:	64e2                	ld	s1,24(sp)
    8000153e:	6942                	ld	s2,16(sp)
    80001540:	69a2                	ld	s3,8(sp)
    80001542:	6a02                	ld	s4,0(sp)
    80001544:	6145                	addi	sp,sp,48
    80001546:	8082                	ret

0000000080001548 <uvmfree>:

// Free user memory pages,
// then free page-table pages.
void
uvmfree(pagetable_t pagetable, uint64 sz)
{
    80001548:	1101                	addi	sp,sp,-32
    8000154a:	ec06                	sd	ra,24(sp)
    8000154c:	e822                	sd	s0,16(sp)
    8000154e:	e426                	sd	s1,8(sp)
    80001550:	1000                	addi	s0,sp,32
    80001552:	84aa                	mv	s1,a0
  if(sz > 0)
    80001554:	e999                	bnez	a1,8000156a <uvmfree+0x22>
    uvmunmap(pagetable, 0, PGROUNDUP(sz)/PGSIZE, 1);
  freewalk(pagetable);
    80001556:	8526                	mv	a0,s1
    80001558:	00000097          	auipc	ra,0x0
    8000155c:	f84080e7          	jalr	-124(ra) # 800014dc <freewalk>
}
    80001560:	60e2                	ld	ra,24(sp)
    80001562:	6442                	ld	s0,16(sp)
    80001564:	64a2                	ld	s1,8(sp)
    80001566:	6105                	addi	sp,sp,32
    80001568:	8082                	ret
    uvmunmap(pagetable, 0, PGROUNDUP(sz)/PGSIZE, 1);
    8000156a:	6785                	lui	a5,0x1
    8000156c:	17fd                	addi	a5,a5,-1 # fff <_entry-0x7ffff001>
    8000156e:	95be                	add	a1,a1,a5
    80001570:	4685                	li	a3,1
    80001572:	00c5d613          	srli	a2,a1,0xc
    80001576:	4581                	li	a1,0
    80001578:	00000097          	auipc	ra,0x0
    8000157c:	d06080e7          	jalr	-762(ra) # 8000127e <uvmunmap>
    80001580:	bfd9                	j	80001556 <uvmfree+0xe>

0000000080001582 <uvmcopy>:
  pte_t *pte;
  uint64 pa, i;
  uint flags;
  char *mem;

  for(i = 0; i < sz; i += PGSIZE){
    80001582:	c679                	beqz	a2,80001650 <uvmcopy+0xce>
{
    80001584:	715d                	addi	sp,sp,-80
    80001586:	e486                	sd	ra,72(sp)
    80001588:	e0a2                	sd	s0,64(sp)
    8000158a:	fc26                	sd	s1,56(sp)
    8000158c:	f84a                	sd	s2,48(sp)
    8000158e:	f44e                	sd	s3,40(sp)
    80001590:	f052                	sd	s4,32(sp)
    80001592:	ec56                	sd	s5,24(sp)
    80001594:	e85a                	sd	s6,16(sp)
    80001596:	e45e                	sd	s7,8(sp)
    80001598:	0880                	addi	s0,sp,80
    8000159a:	8b2a                	mv	s6,a0
    8000159c:	8aae                	mv	s5,a1
    8000159e:	8a32                	mv	s4,a2
  for(i = 0; i < sz; i += PGSIZE){
    800015a0:	4981                	li	s3,0
    if((pte = walk(old, i, 0)) == 0)
    800015a2:	4601                	li	a2,0
    800015a4:	85ce                	mv	a1,s3
    800015a6:	855a                	mv	a0,s6
    800015a8:	00000097          	auipc	ra,0x0
    800015ac:	a28080e7          	jalr	-1496(ra) # 80000fd0 <walk>
    800015b0:	c531                	beqz	a0,800015fc <uvmcopy+0x7a>
      panic("uvmcopy: pte should exist");
    if((*pte & PTE_V) == 0)
    800015b2:	6118                	ld	a4,0(a0)
    800015b4:	00177793          	andi	a5,a4,1
    800015b8:	cbb1                	beqz	a5,8000160c <uvmcopy+0x8a>
      panic("uvmcopy: page not present");
    pa = PTE2PA(*pte);
    800015ba:	00a75593          	srli	a1,a4,0xa
    800015be:	00c59b93          	slli	s7,a1,0xc
    flags = PTE_FLAGS(*pte);
    800015c2:	3ff77493          	andi	s1,a4,1023
    if((mem = kalloc()) == 0)
    800015c6:	fffff097          	auipc	ra,0xfffff
    800015ca:	520080e7          	jalr	1312(ra) # 80000ae6 <kalloc>
    800015ce:	892a                	mv	s2,a0
    800015d0:	c939                	beqz	a0,80001626 <uvmcopy+0xa4>
      goto err;
    memmove(mem, (char*)pa, PGSIZE);
    800015d2:	6605                	lui	a2,0x1
    800015d4:	85de                	mv	a1,s7
    800015d6:	fffff097          	auipc	ra,0xfffff
    800015da:	76a080e7          	jalr	1898(ra) # 80000d40 <memmove>
    if(mappages(new, i, PGSIZE, (uint64)mem, flags) != 0){
    800015de:	8726                	mv	a4,s1
    800015e0:	86ca                	mv	a3,s2
    800015e2:	6605                	lui	a2,0x1
    800015e4:	85ce                	mv	a1,s3
    800015e6:	8556                	mv	a0,s5
    800015e8:	00000097          	auipc	ra,0x0
    800015ec:	ad0080e7          	jalr	-1328(ra) # 800010b8 <mappages>
    800015f0:	e515                	bnez	a0,8000161c <uvmcopy+0x9a>
  for(i = 0; i < sz; i += PGSIZE){
    800015f2:	6785                	lui	a5,0x1
    800015f4:	99be                	add	s3,s3,a5
    800015f6:	fb49e6e3          	bltu	s3,s4,800015a2 <uvmcopy+0x20>
    800015fa:	a081                	j	8000163a <uvmcopy+0xb8>
      panic("uvmcopy: pte should exist");
    800015fc:	00007517          	auipc	a0,0x7
    80001600:	b9c50513          	addi	a0,a0,-1124 # 80008198 <digits+0x158>
    80001604:	fffff097          	auipc	ra,0xfffff
    80001608:	f3c080e7          	jalr	-196(ra) # 80000540 <panic>
      panic("uvmcopy: page not present");
    8000160c:	00007517          	auipc	a0,0x7
    80001610:	bac50513          	addi	a0,a0,-1108 # 800081b8 <digits+0x178>
    80001614:	fffff097          	auipc	ra,0xfffff
    80001618:	f2c080e7          	jalr	-212(ra) # 80000540 <panic>
      kfree(mem);
    8000161c:	854a                	mv	a0,s2
    8000161e:	fffff097          	auipc	ra,0xfffff
    80001622:	3ca080e7          	jalr	970(ra) # 800009e8 <kfree>
    }
  }
  return 0;

 err:
  uvmunmap(new, 0, i / PGSIZE, 1);
    80001626:	4685                	li	a3,1
    80001628:	00c9d613          	srli	a2,s3,0xc
    8000162c:	4581                	li	a1,0
    8000162e:	8556                	mv	a0,s5
    80001630:	00000097          	auipc	ra,0x0
    80001634:	c4e080e7          	jalr	-946(ra) # 8000127e <uvmunmap>
  return -1;
    80001638:	557d                	li	a0,-1
}
    8000163a:	60a6                	ld	ra,72(sp)
    8000163c:	6406                	ld	s0,64(sp)
    8000163e:	74e2                	ld	s1,56(sp)
    80001640:	7942                	ld	s2,48(sp)
    80001642:	79a2                	ld	s3,40(sp)
    80001644:	7a02                	ld	s4,32(sp)
    80001646:	6ae2                	ld	s5,24(sp)
    80001648:	6b42                	ld	s6,16(sp)
    8000164a:	6ba2                	ld	s7,8(sp)
    8000164c:	6161                	addi	sp,sp,80
    8000164e:	8082                	ret
  return 0;
    80001650:	4501                	li	a0,0
}
    80001652:	8082                	ret

0000000080001654 <uvmclear>:

// mark a PTE invalid for user access.
// used by exec for the user stack guard page.
void
uvmclear(pagetable_t pagetable, uint64 va)
{
    80001654:	1141                	addi	sp,sp,-16
    80001656:	e406                	sd	ra,8(sp)
    80001658:	e022                	sd	s0,0(sp)
    8000165a:	0800                	addi	s0,sp,16
  pte_t *pte;
  
  pte = walk(pagetable, va, 0);
    8000165c:	4601                	li	a2,0
    8000165e:	00000097          	auipc	ra,0x0
    80001662:	972080e7          	jalr	-1678(ra) # 80000fd0 <walk>
  if(pte == 0)
    80001666:	c901                	beqz	a0,80001676 <uvmclear+0x22>
    panic("uvmclear");
  *pte &= ~PTE_U;
    80001668:	611c                	ld	a5,0(a0)
    8000166a:	9bbd                	andi	a5,a5,-17
    8000166c:	e11c                	sd	a5,0(a0)
}
    8000166e:	60a2                	ld	ra,8(sp)
    80001670:	6402                	ld	s0,0(sp)
    80001672:	0141                	addi	sp,sp,16
    80001674:	8082                	ret
    panic("uvmclear");
    80001676:	00007517          	auipc	a0,0x7
    8000167a:	b6250513          	addi	a0,a0,-1182 # 800081d8 <digits+0x198>
    8000167e:	fffff097          	auipc	ra,0xfffff
    80001682:	ec2080e7          	jalr	-318(ra) # 80000540 <panic>

0000000080001686 <copyout>:
int
copyout(pagetable_t pagetable, uint64 dstva, char *src, uint64 len)
{
  uint64 n, va0, pa0;

  while(len > 0){
    80001686:	c6bd                	beqz	a3,800016f4 <copyout+0x6e>
{
    80001688:	715d                	addi	sp,sp,-80
    8000168a:	e486                	sd	ra,72(sp)
    8000168c:	e0a2                	sd	s0,64(sp)
    8000168e:	fc26                	sd	s1,56(sp)
    80001690:	f84a                	sd	s2,48(sp)
    80001692:	f44e                	sd	s3,40(sp)
    80001694:	f052                	sd	s4,32(sp)
    80001696:	ec56                	sd	s5,24(sp)
    80001698:	e85a                	sd	s6,16(sp)
    8000169a:	e45e                	sd	s7,8(sp)
    8000169c:	e062                	sd	s8,0(sp)
    8000169e:	0880                	addi	s0,sp,80
    800016a0:	8b2a                	mv	s6,a0
    800016a2:	8c2e                	mv	s8,a1
    800016a4:	8a32                	mv	s4,a2
    800016a6:	89b6                	mv	s3,a3
    va0 = PGROUNDDOWN(dstva);
    800016a8:	7bfd                	lui	s7,0xfffff
    pa0 = walkaddr(pagetable, va0);
    if(pa0 == 0)
      return -1;
    n = PGSIZE - (dstva - va0);
    800016aa:	6a85                	lui	s5,0x1
    800016ac:	a015                	j	800016d0 <copyout+0x4a>
    if(n > len)
      n = len;
    memmove((void *)(pa0 + (dstva - va0)), src, n);
    800016ae:	9562                	add	a0,a0,s8
    800016b0:	0004861b          	sext.w	a2,s1
    800016b4:	85d2                	mv	a1,s4
    800016b6:	41250533          	sub	a0,a0,s2
    800016ba:	fffff097          	auipc	ra,0xfffff
    800016be:	686080e7          	jalr	1670(ra) # 80000d40 <memmove>

    len -= n;
    800016c2:	409989b3          	sub	s3,s3,s1
    src += n;
    800016c6:	9a26                	add	s4,s4,s1
    dstva = va0 + PGSIZE;
    800016c8:	01590c33          	add	s8,s2,s5
  while(len > 0){
    800016cc:	02098263          	beqz	s3,800016f0 <copyout+0x6a>
    va0 = PGROUNDDOWN(dstva);
    800016d0:	017c7933          	and	s2,s8,s7
    pa0 = walkaddr(pagetable, va0);
    800016d4:	85ca                	mv	a1,s2
    800016d6:	855a                	mv	a0,s6
    800016d8:	00000097          	auipc	ra,0x0
    800016dc:	99e080e7          	jalr	-1634(ra) # 80001076 <walkaddr>
    if(pa0 == 0)
    800016e0:	cd01                	beqz	a0,800016f8 <copyout+0x72>
    n = PGSIZE - (dstva - va0);
    800016e2:	418904b3          	sub	s1,s2,s8
    800016e6:	94d6                	add	s1,s1,s5
    800016e8:	fc99f3e3          	bgeu	s3,s1,800016ae <copyout+0x28>
    800016ec:	84ce                	mv	s1,s3
    800016ee:	b7c1                	j	800016ae <copyout+0x28>
  }
  return 0;
    800016f0:	4501                	li	a0,0
    800016f2:	a021                	j	800016fa <copyout+0x74>
    800016f4:	4501                	li	a0,0
}
    800016f6:	8082                	ret
      return -1;
    800016f8:	557d                	li	a0,-1
}
    800016fa:	60a6                	ld	ra,72(sp)
    800016fc:	6406                	ld	s0,64(sp)
    800016fe:	74e2                	ld	s1,56(sp)
    80001700:	7942                	ld	s2,48(sp)
    80001702:	79a2                	ld	s3,40(sp)
    80001704:	7a02                	ld	s4,32(sp)
    80001706:	6ae2                	ld	s5,24(sp)
    80001708:	6b42                	ld	s6,16(sp)
    8000170a:	6ba2                	ld	s7,8(sp)
    8000170c:	6c02                	ld	s8,0(sp)
    8000170e:	6161                	addi	sp,sp,80
    80001710:	8082                	ret

0000000080001712 <copyin>:
int
copyin(pagetable_t pagetable, char *dst, uint64 srcva, uint64 len)
{
  uint64 n, va0, pa0;

  while(len > 0){
    80001712:	caa5                	beqz	a3,80001782 <copyin+0x70>
{
    80001714:	715d                	addi	sp,sp,-80
    80001716:	e486                	sd	ra,72(sp)
    80001718:	e0a2                	sd	s0,64(sp)
    8000171a:	fc26                	sd	s1,56(sp)
    8000171c:	f84a                	sd	s2,48(sp)
    8000171e:	f44e                	sd	s3,40(sp)
    80001720:	f052                	sd	s4,32(sp)
    80001722:	ec56                	sd	s5,24(sp)
    80001724:	e85a                	sd	s6,16(sp)
    80001726:	e45e                	sd	s7,8(sp)
    80001728:	e062                	sd	s8,0(sp)
    8000172a:	0880                	addi	s0,sp,80
    8000172c:	8b2a                	mv	s6,a0
    8000172e:	8a2e                	mv	s4,a1
    80001730:	8c32                	mv	s8,a2
    80001732:	89b6                	mv	s3,a3
    va0 = PGROUNDDOWN(srcva);
    80001734:	7bfd                	lui	s7,0xfffff
    pa0 = walkaddr(pagetable, va0);
    if(pa0 == 0)
      return -1;
    n = PGSIZE - (srcva - va0);
    80001736:	6a85                	lui	s5,0x1
    80001738:	a01d                	j	8000175e <copyin+0x4c>
    if(n > len)
      n = len;
    memmove(dst, (void *)(pa0 + (srcva - va0)), n);
    8000173a:	018505b3          	add	a1,a0,s8
    8000173e:	0004861b          	sext.w	a2,s1
    80001742:	412585b3          	sub	a1,a1,s2
    80001746:	8552                	mv	a0,s4
    80001748:	fffff097          	auipc	ra,0xfffff
    8000174c:	5f8080e7          	jalr	1528(ra) # 80000d40 <memmove>

    len -= n;
    80001750:	409989b3          	sub	s3,s3,s1
    dst += n;
    80001754:	9a26                	add	s4,s4,s1
    srcva = va0 + PGSIZE;
    80001756:	01590c33          	add	s8,s2,s5
  while(len > 0){
    8000175a:	02098263          	beqz	s3,8000177e <copyin+0x6c>
    va0 = PGROUNDDOWN(srcva);
    8000175e:	017c7933          	and	s2,s8,s7
    pa0 = walkaddr(pagetable, va0);
    80001762:	85ca                	mv	a1,s2
    80001764:	855a                	mv	a0,s6
    80001766:	00000097          	auipc	ra,0x0
    8000176a:	910080e7          	jalr	-1776(ra) # 80001076 <walkaddr>
    if(pa0 == 0)
    8000176e:	cd01                	beqz	a0,80001786 <copyin+0x74>
    n = PGSIZE - (srcva - va0);
    80001770:	418904b3          	sub	s1,s2,s8
    80001774:	94d6                	add	s1,s1,s5
    80001776:	fc99f2e3          	bgeu	s3,s1,8000173a <copyin+0x28>
    8000177a:	84ce                	mv	s1,s3
    8000177c:	bf7d                	j	8000173a <copyin+0x28>
  }
  return 0;
    8000177e:	4501                	li	a0,0
    80001780:	a021                	j	80001788 <copyin+0x76>
    80001782:	4501                	li	a0,0
}
    80001784:	8082                	ret
      return -1;
    80001786:	557d                	li	a0,-1
}
    80001788:	60a6                	ld	ra,72(sp)
    8000178a:	6406                	ld	s0,64(sp)
    8000178c:	74e2                	ld	s1,56(sp)
    8000178e:	7942                	ld	s2,48(sp)
    80001790:	79a2                	ld	s3,40(sp)
    80001792:	7a02                	ld	s4,32(sp)
    80001794:	6ae2                	ld	s5,24(sp)
    80001796:	6b42                	ld	s6,16(sp)
    80001798:	6ba2                	ld	s7,8(sp)
    8000179a:	6c02                	ld	s8,0(sp)
    8000179c:	6161                	addi	sp,sp,80
    8000179e:	8082                	ret

00000000800017a0 <copyinstr>:
copyinstr(pagetable_t pagetable, char *dst, uint64 srcva, uint64 max)
{
  uint64 n, va0, pa0;
  int got_null = 0;

  while(got_null == 0 && max > 0){
    800017a0:	c2dd                	beqz	a3,80001846 <copyinstr+0xa6>
{
    800017a2:	715d                	addi	sp,sp,-80
    800017a4:	e486                	sd	ra,72(sp)
    800017a6:	e0a2                	sd	s0,64(sp)
    800017a8:	fc26                	sd	s1,56(sp)
    800017aa:	f84a                	sd	s2,48(sp)
    800017ac:	f44e                	sd	s3,40(sp)
    800017ae:	f052                	sd	s4,32(sp)
    800017b0:	ec56                	sd	s5,24(sp)
    800017b2:	e85a                	sd	s6,16(sp)
    800017b4:	e45e                	sd	s7,8(sp)
    800017b6:	0880                	addi	s0,sp,80
    800017b8:	8a2a                	mv	s4,a0
    800017ba:	8b2e                	mv	s6,a1
    800017bc:	8bb2                	mv	s7,a2
    800017be:	84b6                	mv	s1,a3
    va0 = PGROUNDDOWN(srcva);
    800017c0:	7afd                	lui	s5,0xfffff
    pa0 = walkaddr(pagetable, va0);
    if(pa0 == 0)
      return -1;
    n = PGSIZE - (srcva - va0);
    800017c2:	6985                	lui	s3,0x1
    800017c4:	a02d                	j	800017ee <copyinstr+0x4e>
      n = max;

    char *p = (char *) (pa0 + (srcva - va0));
    while(n > 0){
      if(*p == '\0'){
        *dst = '\0';
    800017c6:	00078023          	sb	zero,0(a5) # 1000 <_entry-0x7ffff000>
    800017ca:	4785                	li	a5,1
      dst++;
    }

    srcva = va0 + PGSIZE;
  }
  if(got_null){
    800017cc:	37fd                	addiw	a5,a5,-1
    800017ce:	0007851b          	sext.w	a0,a5
    return 0;
  } else {
    return -1;
  }
}
    800017d2:	60a6                	ld	ra,72(sp)
    800017d4:	6406                	ld	s0,64(sp)
    800017d6:	74e2                	ld	s1,56(sp)
    800017d8:	7942                	ld	s2,48(sp)
    800017da:	79a2                	ld	s3,40(sp)
    800017dc:	7a02                	ld	s4,32(sp)
    800017de:	6ae2                	ld	s5,24(sp)
    800017e0:	6b42                	ld	s6,16(sp)
    800017e2:	6ba2                	ld	s7,8(sp)
    800017e4:	6161                	addi	sp,sp,80
    800017e6:	8082                	ret
    srcva = va0 + PGSIZE;
    800017e8:	01390bb3          	add	s7,s2,s3
  while(got_null == 0 && max > 0){
    800017ec:	c8a9                	beqz	s1,8000183e <copyinstr+0x9e>
    va0 = PGROUNDDOWN(srcva);
    800017ee:	015bf933          	and	s2,s7,s5
    pa0 = walkaddr(pagetable, va0);
    800017f2:	85ca                	mv	a1,s2
    800017f4:	8552                	mv	a0,s4
    800017f6:	00000097          	auipc	ra,0x0
    800017fa:	880080e7          	jalr	-1920(ra) # 80001076 <walkaddr>
    if(pa0 == 0)
    800017fe:	c131                	beqz	a0,80001842 <copyinstr+0xa2>
    n = PGSIZE - (srcva - va0);
    80001800:	417906b3          	sub	a3,s2,s7
    80001804:	96ce                	add	a3,a3,s3
    80001806:	00d4f363          	bgeu	s1,a3,8000180c <copyinstr+0x6c>
    8000180a:	86a6                	mv	a3,s1
    char *p = (char *) (pa0 + (srcva - va0));
    8000180c:	955e                	add	a0,a0,s7
    8000180e:	41250533          	sub	a0,a0,s2
    while(n > 0){
    80001812:	daf9                	beqz	a3,800017e8 <copyinstr+0x48>
    80001814:	87da                	mv	a5,s6
      if(*p == '\0'){
    80001816:	41650633          	sub	a2,a0,s6
    8000181a:	fff48593          	addi	a1,s1,-1
    8000181e:	95da                	add	a1,a1,s6
    while(n > 0){
    80001820:	96da                	add	a3,a3,s6
      if(*p == '\0'){
    80001822:	00f60733          	add	a4,a2,a5
    80001826:	00074703          	lbu	a4,0(a4) # fffffffffffff000 <end+0xffffffff7ffda3e0>
    8000182a:	df51                	beqz	a4,800017c6 <copyinstr+0x26>
        *dst = *p;
    8000182c:	00e78023          	sb	a4,0(a5)
      --max;
    80001830:	40f584b3          	sub	s1,a1,a5
      dst++;
    80001834:	0785                	addi	a5,a5,1
    while(n > 0){
    80001836:	fed796e3          	bne	a5,a3,80001822 <copyinstr+0x82>
      dst++;
    8000183a:	8b3e                	mv	s6,a5
    8000183c:	b775                	j	800017e8 <copyinstr+0x48>
    8000183e:	4781                	li	a5,0
    80001840:	b771                	j	800017cc <copyinstr+0x2c>
      return -1;
    80001842:	557d                	li	a0,-1
    80001844:	b779                	j	800017d2 <copyinstr+0x32>
  int got_null = 0;
    80001846:	4781                	li	a5,0
  if(got_null){
    80001848:	37fd                	addiw	a5,a5,-1
    8000184a:	0007851b          	sext.w	a0,a5
}
    8000184e:	8082                	ret

0000000080001850 <proc_mapstacks>:

// Allocate a page for each process's kernel stack.
// Map it high in memory, followed by an invalid
// guard page.
void proc_mapstacks(pagetable_t kpgtbl)
{
    80001850:	7139                	addi	sp,sp,-64
    80001852:	fc06                	sd	ra,56(sp)
    80001854:	f822                	sd	s0,48(sp)
    80001856:	f426                	sd	s1,40(sp)
    80001858:	f04a                	sd	s2,32(sp)
    8000185a:	ec4e                	sd	s3,24(sp)
    8000185c:	e852                	sd	s4,16(sp)
    8000185e:	e456                	sd	s5,8(sp)
    80001860:	e05a                	sd	s6,0(sp)
    80001862:	0080                	addi	s0,sp,64
    80001864:	89aa                	mv	s3,a0
  struct proc *p;

  for (p = proc; p < &proc[NPROC]; p++)
    80001866:	0000f497          	auipc	s1,0xf
    8000186a:	73a48493          	addi	s1,s1,1850 # 80010fa0 <proc>
  {
    char *pa = kalloc();
    if (pa == 0)
      panic("kalloc");
    uint64 va = KSTACK((int)(p - proc));
    8000186e:	8b26                	mv	s6,s1
    80001870:	00006a97          	auipc	s5,0x6
    80001874:	790a8a93          	addi	s5,s5,1936 # 80008000 <etext>
    80001878:	04000937          	lui	s2,0x4000
    8000187c:	197d                	addi	s2,s2,-1 # 3ffffff <_entry-0x7c000001>
    8000187e:	0932                	slli	s2,s2,0xc
  for (p = proc; p < &proc[NPROC]; p++)
    80001880:	00017a17          	auipc	s4,0x17
    80001884:	520a0a13          	addi	s4,s4,1312 # 80018da0 <mlfq_q>
    char *pa = kalloc();
    80001888:	fffff097          	auipc	ra,0xfffff
    8000188c:	25e080e7          	jalr	606(ra) # 80000ae6 <kalloc>
    80001890:	862a                	mv	a2,a0
    if (pa == 0)
    80001892:	c131                	beqz	a0,800018d6 <proc_mapstacks+0x86>
    uint64 va = KSTACK((int)(p - proc));
    80001894:	416485b3          	sub	a1,s1,s6
    80001898:	858d                	srai	a1,a1,0x3
    8000189a:	000ab783          	ld	a5,0(s5)
    8000189e:	02f585b3          	mul	a1,a1,a5
    800018a2:	2585                	addiw	a1,a1,1
    800018a4:	00d5959b          	slliw	a1,a1,0xd
    kvmmap(kpgtbl, va, (uint64)pa, PGSIZE, PTE_R | PTE_W);
    800018a8:	4719                	li	a4,6
    800018aa:	6685                	lui	a3,0x1
    800018ac:	40b905b3          	sub	a1,s2,a1
    800018b0:	854e                	mv	a0,s3
    800018b2:	00000097          	auipc	ra,0x0
    800018b6:	8a6080e7          	jalr	-1882(ra) # 80001158 <kvmmap>
  for (p = proc; p < &proc[NPROC]; p++)
    800018ba:	1f848493          	addi	s1,s1,504
    800018be:	fd4495e3          	bne	s1,s4,80001888 <proc_mapstacks+0x38>
  }
}
    800018c2:	70e2                	ld	ra,56(sp)
    800018c4:	7442                	ld	s0,48(sp)
    800018c6:	74a2                	ld	s1,40(sp)
    800018c8:	7902                	ld	s2,32(sp)
    800018ca:	69e2                	ld	s3,24(sp)
    800018cc:	6a42                	ld	s4,16(sp)
    800018ce:	6aa2                	ld	s5,8(sp)
    800018d0:	6b02                	ld	s6,0(sp)
    800018d2:	6121                	addi	sp,sp,64
    800018d4:	8082                	ret
      panic("kalloc");
    800018d6:	00007517          	auipc	a0,0x7
    800018da:	91250513          	addi	a0,a0,-1774 # 800081e8 <digits+0x1a8>
    800018de:	fffff097          	auipc	ra,0xfffff
    800018e2:	c62080e7          	jalr	-926(ra) # 80000540 <panic>

00000000800018e6 <procinit>:

// initialize the proc table.
void procinit(void)
{
    800018e6:	7139                	addi	sp,sp,-64
    800018e8:	fc06                	sd	ra,56(sp)
    800018ea:	f822                	sd	s0,48(sp)
    800018ec:	f426                	sd	s1,40(sp)
    800018ee:	f04a                	sd	s2,32(sp)
    800018f0:	ec4e                	sd	s3,24(sp)
    800018f2:	e852                	sd	s4,16(sp)
    800018f4:	e456                	sd	s5,8(sp)
    800018f6:	e05a                	sd	s6,0(sp)
    800018f8:	0080                	addi	s0,sp,64
  struct proc *p;

  initlock(&pid_lock, "nextpid");
    800018fa:	00007597          	auipc	a1,0x7
    800018fe:	8f658593          	addi	a1,a1,-1802 # 800081f0 <digits+0x1b0>
    80001902:	0000f517          	auipc	a0,0xf
    80001906:	26e50513          	addi	a0,a0,622 # 80010b70 <pid_lock>
    8000190a:	fffff097          	auipc	ra,0xfffff
    8000190e:	23c080e7          	jalr	572(ra) # 80000b46 <initlock>
  initlock(&wait_lock, "wait_lock");
    80001912:	00007597          	auipc	a1,0x7
    80001916:	8e658593          	addi	a1,a1,-1818 # 800081f8 <digits+0x1b8>
    8000191a:	0000f517          	auipc	a0,0xf
    8000191e:	26e50513          	addi	a0,a0,622 # 80010b88 <wait_lock>
    80001922:	fffff097          	auipc	ra,0xfffff
    80001926:	224080e7          	jalr	548(ra) # 80000b46 <initlock>
  for (p = proc; p < &proc[NPROC]; p++)
    8000192a:	0000f497          	auipc	s1,0xf
    8000192e:	67648493          	addi	s1,s1,1654 # 80010fa0 <proc>
  {
    initlock(&p->lock, "proc");
    80001932:	00007b17          	auipc	s6,0x7
    80001936:	8d6b0b13          	addi	s6,s6,-1834 # 80008208 <digits+0x1c8>
    p->state = UNUSED;
    p->kstack = KSTACK((int)(p - proc));
    8000193a:	8aa6                	mv	s5,s1
    8000193c:	00006a17          	auipc	s4,0x6
    80001940:	6c4a0a13          	addi	s4,s4,1732 # 80008000 <etext>
    80001944:	04000937          	lui	s2,0x4000
    80001948:	197d                	addi	s2,s2,-1 # 3ffffff <_entry-0x7c000001>
    8000194a:	0932                	slli	s2,s2,0xc
  for (p = proc; p < &proc[NPROC]; p++)
    8000194c:	00017997          	auipc	s3,0x17
    80001950:	45498993          	addi	s3,s3,1108 # 80018da0 <mlfq_q>
    initlock(&p->lock, "proc");
    80001954:	85da                	mv	a1,s6
    80001956:	8526                	mv	a0,s1
    80001958:	fffff097          	auipc	ra,0xfffff
    8000195c:	1ee080e7          	jalr	494(ra) # 80000b46 <initlock>
    p->state = UNUSED;
    80001960:	0004ac23          	sw	zero,24(s1)
    p->kstack = KSTACK((int)(p - proc));
    80001964:	415487b3          	sub	a5,s1,s5
    80001968:	878d                	srai	a5,a5,0x3
    8000196a:	000a3703          	ld	a4,0(s4)
    8000196e:	02e787b3          	mul	a5,a5,a4
    80001972:	2785                	addiw	a5,a5,1
    80001974:	00d7979b          	slliw	a5,a5,0xd
    80001978:	40f907b3          	sub	a5,s2,a5
    8000197c:	e8fc                	sd	a5,208(s1)
  for (p = proc; p < &proc[NPROC]; p++)
    8000197e:	1f848493          	addi	s1,s1,504
    80001982:	fd3499e3          	bne	s1,s3,80001954 <procinit+0x6e>
  }
}
    80001986:	70e2                	ld	ra,56(sp)
    80001988:	7442                	ld	s0,48(sp)
    8000198a:	74a2                	ld	s1,40(sp)
    8000198c:	7902                	ld	s2,32(sp)
    8000198e:	69e2                	ld	s3,24(sp)
    80001990:	6a42                	ld	s4,16(sp)
    80001992:	6aa2                	ld	s5,8(sp)
    80001994:	6b02                	ld	s6,0(sp)
    80001996:	6121                	addi	sp,sp,64
    80001998:	8082                	ret

000000008000199a <cpuid>:

// Must be called with interrupts disabled,
// to prevent race with process being moved
// to a different CPU.
int cpuid()
{
    8000199a:	1141                	addi	sp,sp,-16
    8000199c:	e422                	sd	s0,8(sp)
    8000199e:	0800                	addi	s0,sp,16
  asm volatile("mv %0, tp" : "=r" (x) );
    800019a0:	8512                	mv	a0,tp
  int id = r_tp();
  return id;
}
    800019a2:	2501                	sext.w	a0,a0
    800019a4:	6422                	ld	s0,8(sp)
    800019a6:	0141                	addi	sp,sp,16
    800019a8:	8082                	ret

00000000800019aa <mycpu>:

// Return this CPU's cpu struct.
// Interrupts must be disabled.
struct cpu *
mycpu(void)
{
    800019aa:	1141                	addi	sp,sp,-16
    800019ac:	e422                	sd	s0,8(sp)
    800019ae:	0800                	addi	s0,sp,16
    800019b0:	8792                	mv	a5,tp
  int id = cpuid();
  struct cpu *c = &cpus[id];
    800019b2:	2781                	sext.w	a5,a5
    800019b4:	079e                	slli	a5,a5,0x7
  return c;
}
    800019b6:	0000f517          	auipc	a0,0xf
    800019ba:	1ea50513          	addi	a0,a0,490 # 80010ba0 <cpus>
    800019be:	953e                	add	a0,a0,a5
    800019c0:	6422                	ld	s0,8(sp)
    800019c2:	0141                	addi	sp,sp,16
    800019c4:	8082                	ret

00000000800019c6 <myproc>:

// Return the current struct proc *, or zero if none.
struct proc *
myproc(void)
{
    800019c6:	1101                	addi	sp,sp,-32
    800019c8:	ec06                	sd	ra,24(sp)
    800019ca:	e822                	sd	s0,16(sp)
    800019cc:	e426                	sd	s1,8(sp)
    800019ce:	1000                	addi	s0,sp,32
  push_off();
    800019d0:	fffff097          	auipc	ra,0xfffff
    800019d4:	1ba080e7          	jalr	442(ra) # 80000b8a <push_off>
    800019d8:	8792                	mv	a5,tp
  struct cpu *c = mycpu();
  struct proc *p = c->proc;
    800019da:	2781                	sext.w	a5,a5
    800019dc:	079e                	slli	a5,a5,0x7
    800019de:	0000f717          	auipc	a4,0xf
    800019e2:	19270713          	addi	a4,a4,402 # 80010b70 <pid_lock>
    800019e6:	97ba                	add	a5,a5,a4
    800019e8:	7b84                	ld	s1,48(a5)
  pop_off();
    800019ea:	fffff097          	auipc	ra,0xfffff
    800019ee:	252080e7          	jalr	594(ra) # 80000c3c <pop_off>
  return p;
}
    800019f2:	8526                	mv	a0,s1
    800019f4:	60e2                	ld	ra,24(sp)
    800019f6:	6442                	ld	s0,16(sp)
    800019f8:	64a2                	ld	s1,8(sp)
    800019fa:	6105                	addi	sp,sp,32
    800019fc:	8082                	ret

00000000800019fe <forkret>:
}

// A fork child's very first scheduling by scheduler()
// will swtch to forkret.
void forkret(void)
{
    800019fe:	1141                	addi	sp,sp,-16
    80001a00:	e406                	sd	ra,8(sp)
    80001a02:	e022                	sd	s0,0(sp)
    80001a04:	0800                	addi	s0,sp,16
  static int first = 1;

  // Still holding p->lock from scheduler.
  release(&myproc()->lock);
    80001a06:	00000097          	auipc	ra,0x0
    80001a0a:	fc0080e7          	jalr	-64(ra) # 800019c6 <myproc>
    80001a0e:	fffff097          	auipc	ra,0xfffff
    80001a12:	28e080e7          	jalr	654(ra) # 80000c9c <release>

  if (first)
    80001a16:	00007797          	auipc	a5,0x7
    80001a1a:	e4a7a783          	lw	a5,-438(a5) # 80008860 <first.1>
    80001a1e:	eb89                	bnez	a5,80001a30 <forkret+0x32>
    // be run from main().
    first = 0;
    fsinit(ROOTDEV);
  }

  usertrapret();
    80001a20:	00001097          	auipc	ra,0x1
    80001a24:	3f8080e7          	jalr	1016(ra) # 80002e18 <usertrapret>
}
    80001a28:	60a2                	ld	ra,8(sp)
    80001a2a:	6402                	ld	s0,0(sp)
    80001a2c:	0141                	addi	sp,sp,16
    80001a2e:	8082                	ret
    first = 0;
    80001a30:	00007797          	auipc	a5,0x7
    80001a34:	e207a823          	sw	zero,-464(a5) # 80008860 <first.1>
    fsinit(ROOTDEV);
    80001a38:	4505                	li	a0,1
    80001a3a:	00002097          	auipc	ra,0x2
    80001a3e:	1d4080e7          	jalr	468(ra) # 80003c0e <fsinit>
    80001a42:	bff9                	j	80001a20 <forkret+0x22>

0000000080001a44 <allocpid>:
{
    80001a44:	1101                	addi	sp,sp,-32
    80001a46:	ec06                	sd	ra,24(sp)
    80001a48:	e822                	sd	s0,16(sp)
    80001a4a:	e426                	sd	s1,8(sp)
    80001a4c:	e04a                	sd	s2,0(sp)
    80001a4e:	1000                	addi	s0,sp,32
  acquire(&pid_lock);
    80001a50:	0000f917          	auipc	s2,0xf
    80001a54:	12090913          	addi	s2,s2,288 # 80010b70 <pid_lock>
    80001a58:	854a                	mv	a0,s2
    80001a5a:	fffff097          	auipc	ra,0xfffff
    80001a5e:	17c080e7          	jalr	380(ra) # 80000bd6 <acquire>
  pid = nextpid;
    80001a62:	00007797          	auipc	a5,0x7
    80001a66:	e0278793          	addi	a5,a5,-510 # 80008864 <nextpid>
    80001a6a:	4384                	lw	s1,0(a5)
  nextpid = nextpid + 1;
    80001a6c:	0014871b          	addiw	a4,s1,1
    80001a70:	c398                	sw	a4,0(a5)
  release(&pid_lock);
    80001a72:	854a                	mv	a0,s2
    80001a74:	fffff097          	auipc	ra,0xfffff
    80001a78:	228080e7          	jalr	552(ra) # 80000c9c <release>
}
    80001a7c:	8526                	mv	a0,s1
    80001a7e:	60e2                	ld	ra,24(sp)
    80001a80:	6442                	ld	s0,16(sp)
    80001a82:	64a2                	ld	s1,8(sp)
    80001a84:	6902                	ld	s2,0(sp)
    80001a86:	6105                	addi	sp,sp,32
    80001a88:	8082                	ret

0000000080001a8a <proc_pagetable>:
{
    80001a8a:	1101                	addi	sp,sp,-32
    80001a8c:	ec06                	sd	ra,24(sp)
    80001a8e:	e822                	sd	s0,16(sp)
    80001a90:	e426                	sd	s1,8(sp)
    80001a92:	e04a                	sd	s2,0(sp)
    80001a94:	1000                	addi	s0,sp,32
    80001a96:	892a                	mv	s2,a0
  pagetable = uvmcreate();
    80001a98:	00000097          	auipc	ra,0x0
    80001a9c:	8aa080e7          	jalr	-1878(ra) # 80001342 <uvmcreate>
    80001aa0:	84aa                	mv	s1,a0
  if (pagetable == 0)
    80001aa2:	c121                	beqz	a0,80001ae2 <proc_pagetable+0x58>
  if (mappages(pagetable, TRAMPOLINE, PGSIZE,
    80001aa4:	4729                	li	a4,10
    80001aa6:	00005697          	auipc	a3,0x5
    80001aaa:	55a68693          	addi	a3,a3,1370 # 80007000 <_trampoline>
    80001aae:	6605                	lui	a2,0x1
    80001ab0:	040005b7          	lui	a1,0x4000
    80001ab4:	15fd                	addi	a1,a1,-1 # 3ffffff <_entry-0x7c000001>
    80001ab6:	05b2                	slli	a1,a1,0xc
    80001ab8:	fffff097          	auipc	ra,0xfffff
    80001abc:	600080e7          	jalr	1536(ra) # 800010b8 <mappages>
    80001ac0:	02054863          	bltz	a0,80001af0 <proc_pagetable+0x66>
  if (mappages(pagetable, TRAPFRAME, PGSIZE,
    80001ac4:	4719                	li	a4,6
    80001ac6:	0e893683          	ld	a3,232(s2)
    80001aca:	6605                	lui	a2,0x1
    80001acc:	020005b7          	lui	a1,0x2000
    80001ad0:	15fd                	addi	a1,a1,-1 # 1ffffff <_entry-0x7e000001>
    80001ad2:	05b6                	slli	a1,a1,0xd
    80001ad4:	8526                	mv	a0,s1
    80001ad6:	fffff097          	auipc	ra,0xfffff
    80001ada:	5e2080e7          	jalr	1506(ra) # 800010b8 <mappages>
    80001ade:	02054163          	bltz	a0,80001b00 <proc_pagetable+0x76>
}
    80001ae2:	8526                	mv	a0,s1
    80001ae4:	60e2                	ld	ra,24(sp)
    80001ae6:	6442                	ld	s0,16(sp)
    80001ae8:	64a2                	ld	s1,8(sp)
    80001aea:	6902                	ld	s2,0(sp)
    80001aec:	6105                	addi	sp,sp,32
    80001aee:	8082                	ret
    uvmfree(pagetable, 0);
    80001af0:	4581                	li	a1,0
    80001af2:	8526                	mv	a0,s1
    80001af4:	00000097          	auipc	ra,0x0
    80001af8:	a54080e7          	jalr	-1452(ra) # 80001548 <uvmfree>
    return 0;
    80001afc:	4481                	li	s1,0
    80001afe:	b7d5                	j	80001ae2 <proc_pagetable+0x58>
    uvmunmap(pagetable, TRAMPOLINE, 1, 0);
    80001b00:	4681                	li	a3,0
    80001b02:	4605                	li	a2,1
    80001b04:	040005b7          	lui	a1,0x4000
    80001b08:	15fd                	addi	a1,a1,-1 # 3ffffff <_entry-0x7c000001>
    80001b0a:	05b2                	slli	a1,a1,0xc
    80001b0c:	8526                	mv	a0,s1
    80001b0e:	fffff097          	auipc	ra,0xfffff
    80001b12:	770080e7          	jalr	1904(ra) # 8000127e <uvmunmap>
    uvmfree(pagetable, 0);
    80001b16:	4581                	li	a1,0
    80001b18:	8526                	mv	a0,s1
    80001b1a:	00000097          	auipc	ra,0x0
    80001b1e:	a2e080e7          	jalr	-1490(ra) # 80001548 <uvmfree>
    return 0;
    80001b22:	4481                	li	s1,0
    80001b24:	bf7d                	j	80001ae2 <proc_pagetable+0x58>

0000000080001b26 <proc_freepagetable>:
{
    80001b26:	1101                	addi	sp,sp,-32
    80001b28:	ec06                	sd	ra,24(sp)
    80001b2a:	e822                	sd	s0,16(sp)
    80001b2c:	e426                	sd	s1,8(sp)
    80001b2e:	e04a                	sd	s2,0(sp)
    80001b30:	1000                	addi	s0,sp,32
    80001b32:	84aa                	mv	s1,a0
    80001b34:	892e                	mv	s2,a1
  uvmunmap(pagetable, TRAMPOLINE, 1, 0);
    80001b36:	4681                	li	a3,0
    80001b38:	4605                	li	a2,1
    80001b3a:	040005b7          	lui	a1,0x4000
    80001b3e:	15fd                	addi	a1,a1,-1 # 3ffffff <_entry-0x7c000001>
    80001b40:	05b2                	slli	a1,a1,0xc
    80001b42:	fffff097          	auipc	ra,0xfffff
    80001b46:	73c080e7          	jalr	1852(ra) # 8000127e <uvmunmap>
  uvmunmap(pagetable, TRAPFRAME, 1, 0);
    80001b4a:	4681                	li	a3,0
    80001b4c:	4605                	li	a2,1
    80001b4e:	020005b7          	lui	a1,0x2000
    80001b52:	15fd                	addi	a1,a1,-1 # 1ffffff <_entry-0x7e000001>
    80001b54:	05b6                	slli	a1,a1,0xd
    80001b56:	8526                	mv	a0,s1
    80001b58:	fffff097          	auipc	ra,0xfffff
    80001b5c:	726080e7          	jalr	1830(ra) # 8000127e <uvmunmap>
  uvmfree(pagetable, sz);
    80001b60:	85ca                	mv	a1,s2
    80001b62:	8526                	mv	a0,s1
    80001b64:	00000097          	auipc	ra,0x0
    80001b68:	9e4080e7          	jalr	-1564(ra) # 80001548 <uvmfree>
}
    80001b6c:	60e2                	ld	ra,24(sp)
    80001b6e:	6442                	ld	s0,16(sp)
    80001b70:	64a2                	ld	s1,8(sp)
    80001b72:	6902                	ld	s2,0(sp)
    80001b74:	6105                	addi	sp,sp,32
    80001b76:	8082                	ret

0000000080001b78 <freeproc>:
{
    80001b78:	1101                	addi	sp,sp,-32
    80001b7a:	ec06                	sd	ra,24(sp)
    80001b7c:	e822                	sd	s0,16(sp)
    80001b7e:	e426                	sd	s1,8(sp)
    80001b80:	1000                	addi	s0,sp,32
    80001b82:	84aa                	mv	s1,a0
  if (p->trapframe)
    80001b84:	7568                	ld	a0,232(a0)
    80001b86:	c509                	beqz	a0,80001b90 <freeproc+0x18>
    kfree((void *)p->trapframe);
    80001b88:	fffff097          	auipc	ra,0xfffff
    80001b8c:	e60080e7          	jalr	-416(ra) # 800009e8 <kfree>
  p->trapframe = 0;
    80001b90:	0e04b423          	sd	zero,232(s1)
  if (p->pagetable)
    80001b94:	70e8                	ld	a0,224(s1)
    80001b96:	c511                	beqz	a0,80001ba2 <freeproc+0x2a>
    proc_freepagetable(p->pagetable, p->sz);
    80001b98:	6cec                	ld	a1,216(s1)
    80001b9a:	00000097          	auipc	ra,0x0
    80001b9e:	f8c080e7          	jalr	-116(ra) # 80001b26 <proc_freepagetable>
  p->pagetable = 0;
    80001ba2:	0e04b023          	sd	zero,224(s1)
  p->sz = 0;
    80001ba6:	0c04bc23          	sd	zero,216(s1)
  p->pid = 0;
    80001baa:	0204a823          	sw	zero,48(s1)
  p->parent = 0;
    80001bae:	0c04b423          	sd	zero,200(s1)
  p->name[0] = 0;
    80001bb2:	1e048423          	sb	zero,488(s1)
  p->chan = 0;
    80001bb6:	0204b023          	sd	zero,32(s1)
  p->killed = 0;
    80001bba:	0204a423          	sw	zero,40(s1)
  p->xstate = 0;
    80001bbe:	0204a623          	sw	zero,44(s1)
  p->state = UNUSED;
    80001bc2:	0004ac23          	sw	zero,24(s1)
}
    80001bc6:	60e2                	ld	ra,24(sp)
    80001bc8:	6442                	ld	s0,16(sp)
    80001bca:	64a2                	ld	s1,8(sp)
    80001bcc:	6105                	addi	sp,sp,32
    80001bce:	8082                	ret

0000000080001bd0 <allocproc>:
{
    80001bd0:	1101                	addi	sp,sp,-32
    80001bd2:	ec06                	sd	ra,24(sp)
    80001bd4:	e822                	sd	s0,16(sp)
    80001bd6:	e426                	sd	s1,8(sp)
    80001bd8:	e04a                	sd	s2,0(sp)
    80001bda:	1000                	addi	s0,sp,32
  for (p = proc; p < &proc[NPROC]; p++)
    80001bdc:	0000f497          	auipc	s1,0xf
    80001be0:	3c448493          	addi	s1,s1,964 # 80010fa0 <proc>
    80001be4:	00017917          	auipc	s2,0x17
    80001be8:	1bc90913          	addi	s2,s2,444 # 80018da0 <mlfq_q>
    acquire(&p->lock);
    80001bec:	8526                	mv	a0,s1
    80001bee:	fffff097          	auipc	ra,0xfffff
    80001bf2:	fe8080e7          	jalr	-24(ra) # 80000bd6 <acquire>
    if (p->state == UNUSED)
    80001bf6:	4c9c                	lw	a5,24(s1)
    80001bf8:	cf81                	beqz	a5,80001c10 <allocproc+0x40>
      release(&p->lock);
    80001bfa:	8526                	mv	a0,s1
    80001bfc:	fffff097          	auipc	ra,0xfffff
    80001c00:	0a0080e7          	jalr	160(ra) # 80000c9c <release>
  for (p = proc; p < &proc[NPROC]; p++)
    80001c04:	1f848493          	addi	s1,s1,504
    80001c08:	ff2492e3          	bne	s1,s2,80001bec <allocproc+0x1c>
  return 0;
    80001c0c:	4481                	li	s1,0
    80001c0e:	a041                	j	80001c8e <allocproc+0xbe>
  p->pid = allocpid();
    80001c10:	00000097          	auipc	ra,0x0
    80001c14:	e34080e7          	jalr	-460(ra) # 80001a44 <allocpid>
    80001c18:	d888                	sw	a0,48(s1)
  p->state = USED;
    80001c1a:	4785                	li	a5,1
    80001c1c:	cc9c                	sw	a5,24(s1)
  if ((p->trapframe = (struct trapframe *)kalloc()) == 0)
    80001c1e:	fffff097          	auipc	ra,0xfffff
    80001c22:	ec8080e7          	jalr	-312(ra) # 80000ae6 <kalloc>
    80001c26:	892a                	mv	s2,a0
    80001c28:	f4e8                	sd	a0,232(s1)
    80001c2a:	c92d                	beqz	a0,80001c9c <allocproc+0xcc>
  p->pagetable = proc_pagetable(p);
    80001c2c:	8526                	mv	a0,s1
    80001c2e:	00000097          	auipc	ra,0x0
    80001c32:	e5c080e7          	jalr	-420(ra) # 80001a8a <proc_pagetable>
    80001c36:	892a                	mv	s2,a0
    80001c38:	f0e8                	sd	a0,224(s1)
  if (p->pagetable == 0)
    80001c3a:	cd2d                	beqz	a0,80001cb4 <allocproc+0xe4>
  memset(&p->context, 0, sizeof(p->context));
    80001c3c:	07000613          	li	a2,112
    80001c40:	4581                	li	a1,0
    80001c42:	0f048513          	addi	a0,s1,240
    80001c46:	fffff097          	auipc	ra,0xfffff
    80001c4a:	09e080e7          	jalr	158(ra) # 80000ce4 <memset>
  p->context.ra = (uint64)forkret;
    80001c4e:	00000797          	auipc	a5,0x0
    80001c52:	db078793          	addi	a5,a5,-592 # 800019fe <forkret>
    80001c56:	f8fc                	sd	a5,240(s1)
  p->context.sp = p->kstack + PGSIZE;
    80001c58:	68fc                	ld	a5,208(s1)
    80001c5a:	6705                	lui	a4,0x1
    80001c5c:	97ba                	add	a5,a5,a4
    80001c5e:	fcfc                	sd	a5,248(s1)
  p->in_time = ticks;
    80001c60:	00007797          	auipc	a5,0x7
    80001c64:	ca07a783          	lw	a5,-864(a5) # 80008900 <ticks>
    80001c68:	d8dc                	sw	a5,52(s1)
  p->ctime = ticks;
    80001c6a:	dc9c                	sw	a5,56(s1)
  p->sleep_ticks = 0;
    80001c6c:	0404b423          	sd	zero,72(s1)
  p->run_ticks = 0;
    80001c70:	0404b823          	sd	zero,80(s1)
  p->priority = 0;
    80001c74:	0404bc23          	sd	zero,88(s1)
  p->no_sched = 0;
    80001c78:	0604b023          	sd	zero,96(s1)
  p->rtime = 0;
    80001c7c:	0204ae23          	sw	zero,60(s1)
  p->etime = 0;
    80001c80:	0404a023          	sw	zero,64(s1)
  p->def_pri = 60;
    80001c84:	03c00793          	li	a5,60
    80001c88:	f4bc                	sd	a5,104(s1)
  p->tickets = 1;
    80001c8a:	4785                	li	a5,1
    80001c8c:	f8bc                	sd	a5,112(s1)
}
    80001c8e:	8526                	mv	a0,s1
    80001c90:	60e2                	ld	ra,24(sp)
    80001c92:	6442                	ld	s0,16(sp)
    80001c94:	64a2                	ld	s1,8(sp)
    80001c96:	6902                	ld	s2,0(sp)
    80001c98:	6105                	addi	sp,sp,32
    80001c9a:	8082                	ret
    freeproc(p);
    80001c9c:	8526                	mv	a0,s1
    80001c9e:	00000097          	auipc	ra,0x0
    80001ca2:	eda080e7          	jalr	-294(ra) # 80001b78 <freeproc>
    release(&p->lock);
    80001ca6:	8526                	mv	a0,s1
    80001ca8:	fffff097          	auipc	ra,0xfffff
    80001cac:	ff4080e7          	jalr	-12(ra) # 80000c9c <release>
    return 0;
    80001cb0:	84ca                	mv	s1,s2
    80001cb2:	bff1                	j	80001c8e <allocproc+0xbe>
    freeproc(p);
    80001cb4:	8526                	mv	a0,s1
    80001cb6:	00000097          	auipc	ra,0x0
    80001cba:	ec2080e7          	jalr	-318(ra) # 80001b78 <freeproc>
    release(&p->lock);
    80001cbe:	8526                	mv	a0,s1
    80001cc0:	fffff097          	auipc	ra,0xfffff
    80001cc4:	fdc080e7          	jalr	-36(ra) # 80000c9c <release>
    return 0;
    80001cc8:	84ca                	mv	s1,s2
    80001cca:	b7d1                	j	80001c8e <allocproc+0xbe>

0000000080001ccc <userinit>:
{
    80001ccc:	1101                	addi	sp,sp,-32
    80001cce:	ec06                	sd	ra,24(sp)
    80001cd0:	e822                	sd	s0,16(sp)
    80001cd2:	e426                	sd	s1,8(sp)
    80001cd4:	1000                	addi	s0,sp,32
  p = allocproc();
    80001cd6:	00000097          	auipc	ra,0x0
    80001cda:	efa080e7          	jalr	-262(ra) # 80001bd0 <allocproc>
    80001cde:	84aa                	mv	s1,a0
  initproc = p;
    80001ce0:	00007797          	auipc	a5,0x7
    80001ce4:	c0a7bc23          	sd	a0,-1000(a5) # 800088f8 <initproc>
  uvmfirst(p->pagetable, initcode, sizeof(initcode));
    80001ce8:	03400613          	li	a2,52
    80001cec:	00007597          	auipc	a1,0x7
    80001cf0:	b8458593          	addi	a1,a1,-1148 # 80008870 <initcode>
    80001cf4:	7168                	ld	a0,224(a0)
    80001cf6:	fffff097          	auipc	ra,0xfffff
    80001cfa:	67a080e7          	jalr	1658(ra) # 80001370 <uvmfirst>
  p->sz = PGSIZE;
    80001cfe:	6785                	lui	a5,0x1
    80001d00:	ecfc                	sd	a5,216(s1)
  p->trapframe->epc = 0;     // user program counter
    80001d02:	74f8                	ld	a4,232(s1)
    80001d04:	00073c23          	sd	zero,24(a4) # 1018 <_entry-0x7fffefe8>
  p->trapframe->sp = PGSIZE; // user stack pointer
    80001d08:	74f8                	ld	a4,232(s1)
    80001d0a:	fb1c                	sd	a5,48(a4)
  safestrcpy(p->name, "initcode", sizeof(p->name));
    80001d0c:	4641                	li	a2,16
    80001d0e:	00006597          	auipc	a1,0x6
    80001d12:	50258593          	addi	a1,a1,1282 # 80008210 <digits+0x1d0>
    80001d16:	1e848513          	addi	a0,s1,488
    80001d1a:	fffff097          	auipc	ra,0xfffff
    80001d1e:	114080e7          	jalr	276(ra) # 80000e2e <safestrcpy>
  p->cwd = namei("/");
    80001d22:	00006517          	auipc	a0,0x6
    80001d26:	4fe50513          	addi	a0,a0,1278 # 80008220 <digits+0x1e0>
    80001d2a:	00003097          	auipc	ra,0x3
    80001d2e:	90e080e7          	jalr	-1778(ra) # 80004638 <namei>
    80001d32:	1ea4b023          	sd	a0,480(s1)
  p->state = RUNNABLE;
    80001d36:	478d                	li	a5,3
    80001d38:	cc9c                	sw	a5,24(s1)
  release(&p->lock);
    80001d3a:	8526                	mv	a0,s1
    80001d3c:	fffff097          	auipc	ra,0xfffff
    80001d40:	f60080e7          	jalr	-160(ra) # 80000c9c <release>
}
    80001d44:	60e2                	ld	ra,24(sp)
    80001d46:	6442                	ld	s0,16(sp)
    80001d48:	64a2                	ld	s1,8(sp)
    80001d4a:	6105                	addi	sp,sp,32
    80001d4c:	8082                	ret

0000000080001d4e <growproc>:
{
    80001d4e:	1101                	addi	sp,sp,-32
    80001d50:	ec06                	sd	ra,24(sp)
    80001d52:	e822                	sd	s0,16(sp)
    80001d54:	e426                	sd	s1,8(sp)
    80001d56:	e04a                	sd	s2,0(sp)
    80001d58:	1000                	addi	s0,sp,32
    80001d5a:	892a                	mv	s2,a0
  struct proc *p = myproc();
    80001d5c:	00000097          	auipc	ra,0x0
    80001d60:	c6a080e7          	jalr	-918(ra) # 800019c6 <myproc>
    80001d64:	84aa                	mv	s1,a0
  sz = p->sz;
    80001d66:	6d6c                	ld	a1,216(a0)
  if (n > 0)
    80001d68:	01204c63          	bgtz	s2,80001d80 <growproc+0x32>
  else if (n < 0)
    80001d6c:	02094663          	bltz	s2,80001d98 <growproc+0x4a>
  p->sz = sz;
    80001d70:	ecec                	sd	a1,216(s1)
  return 0;
    80001d72:	4501                	li	a0,0
}
    80001d74:	60e2                	ld	ra,24(sp)
    80001d76:	6442                	ld	s0,16(sp)
    80001d78:	64a2                	ld	s1,8(sp)
    80001d7a:	6902                	ld	s2,0(sp)
    80001d7c:	6105                	addi	sp,sp,32
    80001d7e:	8082                	ret
    if ((sz = uvmalloc(p->pagetable, sz, sz + n, PTE_W)) == 0)
    80001d80:	4691                	li	a3,4
    80001d82:	00b90633          	add	a2,s2,a1
    80001d86:	7168                	ld	a0,224(a0)
    80001d88:	fffff097          	auipc	ra,0xfffff
    80001d8c:	6a2080e7          	jalr	1698(ra) # 8000142a <uvmalloc>
    80001d90:	85aa                	mv	a1,a0
    80001d92:	fd79                	bnez	a0,80001d70 <growproc+0x22>
      return -1;
    80001d94:	557d                	li	a0,-1
    80001d96:	bff9                	j	80001d74 <growproc+0x26>
    sz = uvmdealloc(p->pagetable, sz, sz + n);
    80001d98:	00b90633          	add	a2,s2,a1
    80001d9c:	7168                	ld	a0,224(a0)
    80001d9e:	fffff097          	auipc	ra,0xfffff
    80001da2:	644080e7          	jalr	1604(ra) # 800013e2 <uvmdealloc>
    80001da6:	85aa                	mv	a1,a0
    80001da8:	b7e1                	j	80001d70 <growproc+0x22>

0000000080001daa <fork>:
{
    80001daa:	7139                	addi	sp,sp,-64
    80001dac:	fc06                	sd	ra,56(sp)
    80001dae:	f822                	sd	s0,48(sp)
    80001db0:	f426                	sd	s1,40(sp)
    80001db2:	f04a                	sd	s2,32(sp)
    80001db4:	ec4e                	sd	s3,24(sp)
    80001db6:	e852                	sd	s4,16(sp)
    80001db8:	e456                	sd	s5,8(sp)
    80001dba:	0080                	addi	s0,sp,64
  struct proc *p = myproc();
    80001dbc:	00000097          	auipc	ra,0x0
    80001dc0:	c0a080e7          	jalr	-1014(ra) # 800019c6 <myproc>
    80001dc4:	8aaa                	mv	s5,a0
  if ((np = allocproc()) == 0)
    80001dc6:	00000097          	auipc	ra,0x0
    80001dca:	e0a080e7          	jalr	-502(ra) # 80001bd0 <allocproc>
    80001dce:	10050c63          	beqz	a0,80001ee6 <fork+0x13c>
    80001dd2:	8a2a                	mv	s4,a0
  if (uvmcopy(p->pagetable, np->pagetable, p->sz) < 0)
    80001dd4:	0d8ab603          	ld	a2,216(s5)
    80001dd8:	716c                	ld	a1,224(a0)
    80001dda:	0e0ab503          	ld	a0,224(s5)
    80001dde:	fffff097          	auipc	ra,0xfffff
    80001de2:	7a4080e7          	jalr	1956(ra) # 80001582 <uvmcopy>
    80001de6:	04054863          	bltz	a0,80001e36 <fork+0x8c>
  np->sz = p->sz;
    80001dea:	0d8ab783          	ld	a5,216(s5)
    80001dee:	0cfa3c23          	sd	a5,216(s4)
  *(np->trapframe) = *(p->trapframe);
    80001df2:	0e8ab683          	ld	a3,232(s5)
    80001df6:	87b6                	mv	a5,a3
    80001df8:	0e8a3703          	ld	a4,232(s4)
    80001dfc:	12068693          	addi	a3,a3,288
    80001e00:	0007b803          	ld	a6,0(a5) # 1000 <_entry-0x7ffff000>
    80001e04:	6788                	ld	a0,8(a5)
    80001e06:	6b8c                	ld	a1,16(a5)
    80001e08:	6f90                	ld	a2,24(a5)
    80001e0a:	01073023          	sd	a6,0(a4)
    80001e0e:	e708                	sd	a0,8(a4)
    80001e10:	eb0c                	sd	a1,16(a4)
    80001e12:	ef10                	sd	a2,24(a4)
    80001e14:	02078793          	addi	a5,a5,32
    80001e18:	02070713          	addi	a4,a4,32
    80001e1c:	fed792e3          	bne	a5,a3,80001e00 <fork+0x56>
  np->trapframe->a0 = 0;
    80001e20:	0e8a3783          	ld	a5,232(s4)
    80001e24:	0607b823          	sd	zero,112(a5)
  for (i = 0; i < NOFILE; i++)
    80001e28:	160a8493          	addi	s1,s5,352
    80001e2c:	160a0913          	addi	s2,s4,352
    80001e30:	1e0a8993          	addi	s3,s5,480
    80001e34:	a00d                	j	80001e56 <fork+0xac>
    freeproc(np);
    80001e36:	8552                	mv	a0,s4
    80001e38:	00000097          	auipc	ra,0x0
    80001e3c:	d40080e7          	jalr	-704(ra) # 80001b78 <freeproc>
    release(&np->lock);
    80001e40:	8552                	mv	a0,s4
    80001e42:	fffff097          	auipc	ra,0xfffff
    80001e46:	e5a080e7          	jalr	-422(ra) # 80000c9c <release>
    return -1;
    80001e4a:	597d                	li	s2,-1
    80001e4c:	a059                	j	80001ed2 <fork+0x128>
  for (i = 0; i < NOFILE; i++)
    80001e4e:	04a1                	addi	s1,s1,8
    80001e50:	0921                	addi	s2,s2,8
    80001e52:	01348b63          	beq	s1,s3,80001e68 <fork+0xbe>
    if (p->ofile[i])
    80001e56:	6088                	ld	a0,0(s1)
    80001e58:	d97d                	beqz	a0,80001e4e <fork+0xa4>
      np->ofile[i] = filedup(p->ofile[i]);
    80001e5a:	00003097          	auipc	ra,0x3
    80001e5e:	e74080e7          	jalr	-396(ra) # 80004cce <filedup>
    80001e62:	00a93023          	sd	a0,0(s2)
    80001e66:	b7e5                	j	80001e4e <fork+0xa4>
  np->cwd = idup(p->cwd);
    80001e68:	1e0ab503          	ld	a0,480(s5)
    80001e6c:	00002097          	auipc	ra,0x2
    80001e70:	fe2080e7          	jalr	-30(ra) # 80003e4e <idup>
    80001e74:	1eaa3023          	sd	a0,480(s4)
  safestrcpy(np->name, p->name, sizeof(p->name));
    80001e78:	4641                	li	a2,16
    80001e7a:	1e8a8593          	addi	a1,s5,488
    80001e7e:	1e8a0513          	addi	a0,s4,488
    80001e82:	fffff097          	auipc	ra,0xfffff
    80001e86:	fac080e7          	jalr	-84(ra) # 80000e2e <safestrcpy>
  pid = np->pid;
    80001e8a:	030a2903          	lw	s2,48(s4)
  release(&np->lock);
    80001e8e:	8552                	mv	a0,s4
    80001e90:	fffff097          	auipc	ra,0xfffff
    80001e94:	e0c080e7          	jalr	-500(ra) # 80000c9c <release>
  acquire(&wait_lock);
    80001e98:	0000f497          	auipc	s1,0xf
    80001e9c:	cf048493          	addi	s1,s1,-784 # 80010b88 <wait_lock>
    80001ea0:	8526                	mv	a0,s1
    80001ea2:	fffff097          	auipc	ra,0xfffff
    80001ea6:	d34080e7          	jalr	-716(ra) # 80000bd6 <acquire>
  np->parent = p;
    80001eaa:	0d5a3423          	sd	s5,200(s4)
  release(&wait_lock);
    80001eae:	8526                	mv	a0,s1
    80001eb0:	fffff097          	auipc	ra,0xfffff
    80001eb4:	dec080e7          	jalr	-532(ra) # 80000c9c <release>
  acquire(&np->lock);
    80001eb8:	8552                	mv	a0,s4
    80001eba:	fffff097          	auipc	ra,0xfffff
    80001ebe:	d1c080e7          	jalr	-740(ra) # 80000bd6 <acquire>
  np->state = RUNNABLE;
    80001ec2:	478d                	li	a5,3
    80001ec4:	00fa2c23          	sw	a5,24(s4)
  release(&np->lock);
    80001ec8:	8552                	mv	a0,s4
    80001eca:	fffff097          	auipc	ra,0xfffff
    80001ece:	dd2080e7          	jalr	-558(ra) # 80000c9c <release>
}
    80001ed2:	854a                	mv	a0,s2
    80001ed4:	70e2                	ld	ra,56(sp)
    80001ed6:	7442                	ld	s0,48(sp)
    80001ed8:	74a2                	ld	s1,40(sp)
    80001eda:	7902                	ld	s2,32(sp)
    80001edc:	69e2                	ld	s3,24(sp)
    80001ede:	6a42                	ld	s4,16(sp)
    80001ee0:	6aa2                	ld	s5,8(sp)
    80001ee2:	6121                	addi	sp,sp,64
    80001ee4:	8082                	ret
    return -1;
    80001ee6:	597d                	li	s2,-1
    80001ee8:	b7ed                	j	80001ed2 <fork+0x128>

0000000080001eea <update_time>:
{
    80001eea:	7179                	addi	sp,sp,-48
    80001eec:	f406                	sd	ra,40(sp)
    80001eee:	f022                	sd	s0,32(sp)
    80001ef0:	ec26                	sd	s1,24(sp)
    80001ef2:	e84a                	sd	s2,16(sp)
    80001ef4:	e44e                	sd	s3,8(sp)
    80001ef6:	e052                	sd	s4,0(sp)
    80001ef8:	1800                	addi	s0,sp,48
  for (p = proc; p < &proc[NPROC]; p++)
    80001efa:	0000f497          	auipc	s1,0xf
    80001efe:	0a648493          	addi	s1,s1,166 # 80010fa0 <proc>
    if (p->state == RUNNING)
    80001f02:	4991                	li	s3,4
    if (p->state == SLEEPING)
    80001f04:	4a09                	li	s4,2
  for (p = proc; p < &proc[NPROC]; p++)
    80001f06:	00017917          	auipc	s2,0x17
    80001f0a:	e9a90913          	addi	s2,s2,-358 # 80018da0 <mlfq_q>
    80001f0e:	a005                	j	80001f2e <update_time+0x44>
      p->rtime++;
    80001f10:	5cdc                	lw	a5,60(s1)
    80001f12:	2785                	addiw	a5,a5,1
    80001f14:	dcdc                	sw	a5,60(s1)
      p->run_ticks++;
    80001f16:	68bc                	ld	a5,80(s1)
    80001f18:	0785                	addi	a5,a5,1
    80001f1a:	e8bc                	sd	a5,80(s1)
    release(&p->lock);
    80001f1c:	8526                	mv	a0,s1
    80001f1e:	fffff097          	auipc	ra,0xfffff
    80001f22:	d7e080e7          	jalr	-642(ra) # 80000c9c <release>
  for (p = proc; p < &proc[NPROC]; p++)
    80001f26:	1f848493          	addi	s1,s1,504
    80001f2a:	03248063          	beq	s1,s2,80001f4a <update_time+0x60>
    acquire(&p->lock);
    80001f2e:	8526                	mv	a0,s1
    80001f30:	fffff097          	auipc	ra,0xfffff
    80001f34:	ca6080e7          	jalr	-858(ra) # 80000bd6 <acquire>
    if (p->state == RUNNING)
    80001f38:	4c9c                	lw	a5,24(s1)
    80001f3a:	fd378be3          	beq	a5,s3,80001f10 <update_time+0x26>
    if (p->state == SLEEPING)
    80001f3e:	fd479fe3          	bne	a5,s4,80001f1c <update_time+0x32>
      p->sleep_ticks++;
    80001f42:	64bc                	ld	a5,72(s1)
    80001f44:	0785                	addi	a5,a5,1
    80001f46:	e4bc                	sd	a5,72(s1)
    80001f48:	bfd1                	j	80001f1c <update_time+0x32>
}
    80001f4a:	70a2                	ld	ra,40(sp)
    80001f4c:	7402                	ld	s0,32(sp)
    80001f4e:	64e2                	ld	s1,24(sp)
    80001f50:	6942                	ld	s2,16(sp)
    80001f52:	69a2                	ld	s3,8(sp)
    80001f54:	6a02                	ld	s4,0(sp)
    80001f56:	6145                	addi	sp,sp,48
    80001f58:	8082                	ret

0000000080001f5a <round_robin>:
{
    80001f5a:	7139                	addi	sp,sp,-64
    80001f5c:	fc06                	sd	ra,56(sp)
    80001f5e:	f822                	sd	s0,48(sp)
    80001f60:	f426                	sd	s1,40(sp)
    80001f62:	f04a                	sd	s2,32(sp)
    80001f64:	ec4e                	sd	s3,24(sp)
    80001f66:	e852                	sd	s4,16(sp)
    80001f68:	e456                	sd	s5,8(sp)
    80001f6a:	e05a                	sd	s6,0(sp)
    80001f6c:	0080                	addi	s0,sp,64
    80001f6e:	8792                	mv	a5,tp
  int id = r_tp();
    80001f70:	2781                	sext.w	a5,a5
  c->proc = 0;
    80001f72:	00779a93          	slli	s5,a5,0x7
    80001f76:	0000f717          	auipc	a4,0xf
    80001f7a:	bfa70713          	addi	a4,a4,-1030 # 80010b70 <pid_lock>
    80001f7e:	9756                	add	a4,a4,s5
    80001f80:	02073823          	sd	zero,48(a4)
        swtch(&c->context, &p->context);
    80001f84:	0000f717          	auipc	a4,0xf
    80001f88:	c2470713          	addi	a4,a4,-988 # 80010ba8 <cpus+0x8>
    80001f8c:	9aba                	add	s5,s5,a4
      if (p->state == RUNNABLE)
    80001f8e:	498d                	li	s3,3
        p->state = RUNNING;
    80001f90:	4b11                	li	s6,4
        c->proc = p;
    80001f92:	079e                	slli	a5,a5,0x7
    80001f94:	0000fa17          	auipc	s4,0xf
    80001f98:	bdca0a13          	addi	s4,s4,-1060 # 80010b70 <pid_lock>
    80001f9c:	9a3e                	add	s4,s4,a5
    for (p = proc; p < &proc[NPROC]; p++)
    80001f9e:	00017917          	auipc	s2,0x17
    80001fa2:	e0290913          	addi	s2,s2,-510 # 80018da0 <mlfq_q>
  asm volatile("csrr %0, sstatus" : "=r" (x) );
    80001fa6:	100027f3          	csrr	a5,sstatus
  w_sstatus(r_sstatus() | SSTATUS_SIE);
    80001faa:	0027e793          	ori	a5,a5,2
  asm volatile("csrw sstatus, %0" : : "r" (x));
    80001fae:	10079073          	csrw	sstatus,a5
    80001fb2:	0000f497          	auipc	s1,0xf
    80001fb6:	fee48493          	addi	s1,s1,-18 # 80010fa0 <proc>
    80001fba:	a811                	j	80001fce <round_robin+0x74>
      release(&p->lock);
    80001fbc:	8526                	mv	a0,s1
    80001fbe:	fffff097          	auipc	ra,0xfffff
    80001fc2:	cde080e7          	jalr	-802(ra) # 80000c9c <release>
    for (p = proc; p < &proc[NPROC]; p++)
    80001fc6:	1f848493          	addi	s1,s1,504
    80001fca:	fd248ee3          	beq	s1,s2,80001fa6 <round_robin+0x4c>
      acquire(&p->lock);
    80001fce:	8526                	mv	a0,s1
    80001fd0:	fffff097          	auipc	ra,0xfffff
    80001fd4:	c06080e7          	jalr	-1018(ra) # 80000bd6 <acquire>
      if (p->state == RUNNABLE)
    80001fd8:	4c9c                	lw	a5,24(s1)
    80001fda:	ff3791e3          	bne	a5,s3,80001fbc <round_robin+0x62>
        p->state = RUNNING;
    80001fde:	0164ac23          	sw	s6,24(s1)
        c->proc = p;
    80001fe2:	029a3823          	sd	s1,48(s4)
        swtch(&c->context, &p->context);
    80001fe6:	0f048593          	addi	a1,s1,240
    80001fea:	8556                	mv	a0,s5
    80001fec:	00001097          	auipc	ra,0x1
    80001ff0:	d82080e7          	jalr	-638(ra) # 80002d6e <swtch>
        c->proc = 0;
    80001ff4:	020a3823          	sd	zero,48(s4)
    80001ff8:	b7d1                	j	80001fbc <round_robin+0x62>

0000000080001ffa <scheduler>:
{
    80001ffa:	1141                	addi	sp,sp,-16
    80001ffc:	e406                	sd	ra,8(sp)
    80001ffe:	e022                	sd	s0,0(sp)
    80002000:	0800                	addi	s0,sp,16
  round_robin();
    80002002:	00000097          	auipc	ra,0x0
    80002006:	f58080e7          	jalr	-168(ra) # 80001f5a <round_robin>

000000008000200a <FCFS>:
{
    8000200a:	715d                	addi	sp,sp,-80
    8000200c:	e486                	sd	ra,72(sp)
    8000200e:	e0a2                	sd	s0,64(sp)
    80002010:	fc26                	sd	s1,56(sp)
    80002012:	f84a                	sd	s2,48(sp)
    80002014:	f44e                	sd	s3,40(sp)
    80002016:	f052                	sd	s4,32(sp)
    80002018:	ec56                	sd	s5,24(sp)
    8000201a:	e85a                	sd	s6,16(sp)
    8000201c:	e45e                	sd	s7,8(sp)
    8000201e:	0880                	addi	s0,sp,80
  asm volatile("mv %0, tp" : "=r" (x) );
    80002020:	8792                	mv	a5,tp
  int id = r_tp();
    80002022:	2781                	sext.w	a5,a5
  c->proc = 0;
    80002024:	00779693          	slli	a3,a5,0x7
    80002028:	0000f717          	auipc	a4,0xf
    8000202c:	b4870713          	addi	a4,a4,-1208 # 80010b70 <pid_lock>
    80002030:	9736                	add	a4,a4,a3
    80002032:	02073823          	sd	zero,48(a4)
        swtch(&c->context, &first_proc->context);
    80002036:	0000f717          	auipc	a4,0xf
    8000203a:	b7270713          	addi	a4,a4,-1166 # 80010ba8 <cpus+0x8>
    8000203e:	00e68bb3          	add	s7,a3,a4
    first_proc = 0;
    80002042:	4a81                	li	s5,0
      if (p->state == RUNNABLE)
    80002044:	498d                	li	s3,3
    for (p = proc; p < &proc[NPROC]; p++)
    80002046:	00017a17          	auipc	s4,0x17
    8000204a:	d5aa0a13          	addi	s4,s4,-678 # 80018da0 <mlfq_q>
        c->proc = first_proc;
    8000204e:	0000fb17          	auipc	s6,0xf
    80002052:	b22b0b13          	addi	s6,s6,-1246 # 80010b70 <pid_lock>
    80002056:	9b36                	add	s6,s6,a3
    80002058:	a881                	j	800020a8 <FCFS+0x9e>
        if (first_proc == 0)
    8000205a:	00090c63          	beqz	s2,80002072 <FCFS+0x68>
        else if (p->in_time < first_proc->in_time)
    8000205e:	58d8                	lw	a4,52(s1)
    80002060:	03492783          	lw	a5,52(s2)
    80002064:	02f75563          	bge	a4,a5,8000208e <FCFS+0x84>
          release(&first_proc->lock);
    80002068:	854a                	mv	a0,s2
    8000206a:	fffff097          	auipc	ra,0xfffff
    8000206e:	c32080e7          	jalr	-974(ra) # 80000c9c <release>
    for (p = proc; p < &proc[NPROC]; p++)
    80002072:	1f848793          	addi	a5,s1,504
    80002076:	05478663          	beq	a5,s4,800020c2 <FCFS+0xb8>
    8000207a:	8926                	mv	s2,s1
    8000207c:	84be                	mv	s1,a5
      acquire(&p->lock);
    8000207e:	8526                	mv	a0,s1
    80002080:	fffff097          	auipc	ra,0xfffff
    80002084:	b56080e7          	jalr	-1194(ra) # 80000bd6 <acquire>
      if (p->state == RUNNABLE)
    80002088:	4c9c                	lw	a5,24(s1)
    8000208a:	fd3788e3          	beq	a5,s3,8000205a <FCFS+0x50>
      if (first_proc != p)
    8000208e:	fe9902e3          	beq	s2,s1,80002072 <FCFS+0x68>
        release(&p->lock);
    80002092:	8526                	mv	a0,s1
    80002094:	fffff097          	auipc	ra,0xfffff
    80002098:	c08080e7          	jalr	-1016(ra) # 80000c9c <release>
    for (p = proc; p < &proc[NPROC]; p++)
    8000209c:	1f848493          	addi	s1,s1,504
    800020a0:	fd449fe3          	bne	s1,s4,8000207e <FCFS+0x74>
    if (first_proc != 0)
    800020a4:	00091e63          	bnez	s2,800020c0 <FCFS+0xb6>
  asm volatile("csrr %0, sstatus" : "=r" (x) );
    800020a8:	100027f3          	csrr	a5,sstatus
  w_sstatus(r_sstatus() | SSTATUS_SIE);
    800020ac:	0027e793          	ori	a5,a5,2
  asm volatile("csrw sstatus, %0" : : "r" (x));
    800020b0:	10079073          	csrw	sstatus,a5
    first_proc = 0;
    800020b4:	8956                	mv	s2,s5
    for (p = proc; p < &proc[NPROC]; p++)
    800020b6:	0000f497          	auipc	s1,0xf
    800020ba:	eea48493          	addi	s1,s1,-278 # 80010fa0 <proc>
    800020be:	b7c1                	j	8000207e <FCFS+0x74>
    800020c0:	84ca                	mv	s1,s2
      if (first_proc->state == RUNNABLE)
    800020c2:	4c9c                	lw	a5,24(s1)
    800020c4:	01379f63          	bne	a5,s3,800020e2 <FCFS+0xd8>
        first_proc->state = RUNNING;
    800020c8:	4791                	li	a5,4
    800020ca:	cc9c                	sw	a5,24(s1)
        c->proc = first_proc;
    800020cc:	029b3823          	sd	s1,48(s6)
        swtch(&c->context, &first_proc->context);
    800020d0:	0f048593          	addi	a1,s1,240
    800020d4:	855e                	mv	a0,s7
    800020d6:	00001097          	auipc	ra,0x1
    800020da:	c98080e7          	jalr	-872(ra) # 80002d6e <swtch>
        c->proc = 0;
    800020de:	020b3823          	sd	zero,48(s6)
      release(&first_proc->lock);
    800020e2:	8526                	mv	a0,s1
    800020e4:	fffff097          	auipc	ra,0xfffff
    800020e8:	bb8080e7          	jalr	-1096(ra) # 80000c9c <release>
    800020ec:	bf75                	j	800020a8 <FCFS+0x9e>

00000000800020ee <niceness>:
{
    800020ee:	1141                	addi	sp,sp,-16
    800020f0:	e422                	sd	s0,8(sp)
    800020f2:	0800                	addi	s0,sp,16
  if (p->priority == 1 || p->no_sched == 0)
    800020f4:	6d34                	ld	a3,88(a0)
    800020f6:	4705                	li	a4,1
    800020f8:	02e68363          	beq	a3,a4,8000211e <niceness+0x30>
    800020fc:	87aa                	mv	a5,a0
    800020fe:	7138                	ld	a4,96(a0)
    return 5;
    80002100:	4515                	li	a0,5
  if (p->priority == 1 || p->no_sched == 0)
    80002102:	cb19                	beqz	a4,80002118 <niceness+0x2a>
    int val = (int)((p->sleep_ticks / (p->run_ticks + p->sleep_ticks)) * 10);
    80002104:	67b8                	ld	a4,72(a5)
    80002106:	6bbc                	ld	a5,80(a5)
    80002108:	97ba                	add	a5,a5,a4
    8000210a:	02f757b3          	divu	a5,a4,a5
    8000210e:	0027951b          	slliw	a0,a5,0x2
    80002112:	9d3d                	addw	a0,a0,a5
    80002114:	0015151b          	slliw	a0,a0,0x1
}
    80002118:	6422                	ld	s0,8(sp)
    8000211a:	0141                	addi	sp,sp,16
    8000211c:	8082                	ret
    return 5;
    8000211e:	4515                	li	a0,5
    80002120:	bfe5                	j	80002118 <niceness+0x2a>

0000000080002122 <PBS>:
{
    80002122:	7159                	addi	sp,sp,-112
    80002124:	f486                	sd	ra,104(sp)
    80002126:	f0a2                	sd	s0,96(sp)
    80002128:	eca6                	sd	s1,88(sp)
    8000212a:	e8ca                	sd	s2,80(sp)
    8000212c:	e4ce                	sd	s3,72(sp)
    8000212e:	e0d2                	sd	s4,64(sp)
    80002130:	fc56                	sd	s5,56(sp)
    80002132:	f85a                	sd	s6,48(sp)
    80002134:	f45e                	sd	s7,40(sp)
    80002136:	f062                	sd	s8,32(sp)
    80002138:	ec66                	sd	s9,24(sp)
    8000213a:	e86a                	sd	s10,16(sp)
    8000213c:	e46e                	sd	s11,8(sp)
    8000213e:	1880                	addi	s0,sp,112
  asm volatile("mv %0, tp" : "=r" (x) );
    80002140:	8792                	mv	a5,tp
  int id = r_tp();
    80002142:	2781                	sext.w	a5,a5
  c->proc = 0;
    80002144:	00779d13          	slli	s10,a5,0x7
    80002148:	0000f717          	auipc	a4,0xf
    8000214c:	a2870713          	addi	a4,a4,-1496 # 80010b70 <pid_lock>
    80002150:	976a                	add	a4,a4,s10
    80002152:	02073823          	sd	zero,48(a4)
      swtch(&c->context, &top_pri->context);
    80002156:	0000f717          	auipc	a4,0xf
    8000215a:	a5270713          	addi	a4,a4,-1454 # 80010ba8 <cpus+0x8>
    8000215e:	9d3a                	add	s10,s10,a4
    for (p = proc; p < &proc[NPROC]; p++)
    80002160:	00017a17          	auipc	s4,0x17
    80002164:	c40a0a13          	addi	s4,s4,-960 # 80018da0 <mlfq_q>
        dp = max(0, min(p->def_pri - nice + 5, 100));
    80002168:	06400b13          	li	s6,100
      c->proc = top_pri;
    8000216c:	079e                	slli	a5,a5,0x7
    8000216e:	0000fc97          	auipc	s9,0xf
    80002172:	a02c8c93          	addi	s9,s9,-1534 # 80010b70 <pid_lock>
    80002176:	9cbe                	add	s9,s9,a5
    80002178:	a87d                	j	80002236 <PBS+0x114>
        nice = niceness(p);
    8000217a:	8526                	mv	a0,s1
    8000217c:	00000097          	auipc	ra,0x0
    80002180:	f72080e7          	jalr	-142(ra) # 800020ee <niceness>
        dp = max(0, min(p->def_pri - nice + 5, 100));
    80002184:	74bc                	ld	a5,104(s1)
    80002186:	0795                	addi	a5,a5,5
    80002188:	40a78533          	sub	a0,a5,a0
    8000218c:	00ab7363          	bgeu	s6,a0,80002192 <PBS+0x70>
    80002190:	855a                	mv	a0,s6
    80002192:	00050d9b          	sext.w	s11,a0
        if (top_pri == 0)
    80002196:	02090863          	beqz	s2,800021c6 <PBS+0xa4>
        else if (dp_min > dp)
    8000219a:	035dc163          	blt	s11,s5,800021bc <PBS+0x9a>
        else if (dp_min == dp)
    8000219e:	055d9363          	bne	s11,s5,800021e4 <PBS+0xc2>
          if (top_pri->no_sched == p->no_sched && top_pri->ctime < p->ctime)
    800021a2:	06093703          	ld	a4,96(s2)
    800021a6:	70bc                	ld	a5,96(s1)
    800021a8:	0af70863          	beq	a4,a5,80002258 <PBS+0x136>
          else if (top_pri->no_sched > p->no_sched)
    800021ac:	02e7fc63          	bgeu	a5,a4,800021e4 <PBS+0xc2>
            release(&top_pri->lock);
    800021b0:	854a                	mv	a0,s2
    800021b2:	fffff097          	auipc	ra,0xfffff
    800021b6:	aea080e7          	jalr	-1302(ra) # 80000c9c <release>
            top_pri = p;
    800021ba:	a031                	j	800021c6 <PBS+0xa4>
          release(&top_pri->lock);
    800021bc:	854a                	mv	a0,s2
    800021be:	fffff097          	auipc	ra,0xfffff
    800021c2:	ade080e7          	jalr	-1314(ra) # 80000c9c <release>
      if (top_pri != p)
    800021c6:	8aee                	mv	s5,s11
    for (p = proc; p < &proc[NPROC]; p++)
    800021c8:	1f848793          	addi	a5,s1,504
    800021cc:	03478a63          	beq	a5,s4,80002200 <PBS+0xde>
    800021d0:	8926                	mv	s2,s1
    800021d2:	84be                	mv	s1,a5
      acquire(&p->lock);
    800021d4:	8526                	mv	a0,s1
    800021d6:	fffff097          	auipc	ra,0xfffff
    800021da:	a00080e7          	jalr	-1536(ra) # 80000bd6 <acquire>
      if (p->state == RUNNABLE)
    800021de:	4c9c                	lw	a5,24(s1)
    800021e0:	f9378de3          	beq	a5,s3,8000217a <PBS+0x58>
      if (top_pri != p)
    800021e4:	fe9902e3          	beq	s2,s1,800021c8 <PBS+0xa6>
        release(&p->lock);
    800021e8:	8526                	mv	a0,s1
    800021ea:	fffff097          	auipc	ra,0xfffff
    800021ee:	ab2080e7          	jalr	-1358(ra) # 80000c9c <release>
    for (p = proc; p < &proc[NPROC]; p++)
    800021f2:	1f848493          	addi	s1,s1,504
    800021f6:	fd449fe3          	bne	s1,s4,800021d4 <PBS+0xb2>
    if (top_pri)
    800021fa:	04090263          	beqz	s2,8000223e <PBS+0x11c>
    800021fe:	84ca                	mv	s1,s2
      top_pri->state = RUNNING;
    80002200:	4791                	li	a5,4
    80002202:	cc9c                	sw	a5,24(s1)
      c->proc = top_pri;
    80002204:	029cb823          	sd	s1,48(s9)
      swtch(&c->context, &top_pri->context);
    80002208:	0f048593          	addi	a1,s1,240
    8000220c:	856a                	mv	a0,s10
    8000220e:	00001097          	auipc	ra,0x1
    80002212:	b60080e7          	jalr	-1184(ra) # 80002d6e <swtch>
      c->proc = 0;
    80002216:	020cb823          	sd	zero,48(s9)
      top_pri->sleep_ticks = 0;
    8000221a:	0404b423          	sd	zero,72(s1)
      top_pri->run_ticks = 0;
    8000221e:	0404b823          	sd	zero,80(s1)
      top_pri->priority = 0;
    80002222:	0404bc23          	sd	zero,88(s1)
      top_pri->no_sched++;
    80002226:	70bc                	ld	a5,96(s1)
    80002228:	0785                	addi	a5,a5,1
    8000222a:	f0bc                	sd	a5,96(s1)
      release(&top_pri->lock);
    8000222c:	8526                	mv	a0,s1
    8000222e:	fffff097          	auipc	ra,0xfffff
    80002232:	a6e080e7          	jalr	-1426(ra) # 80000c9c <release>
    dp_min = 101;
    80002236:	06500c13          	li	s8,101
    top_pri = 0;
    8000223a:	4b81                	li	s7,0
      if (p->state == RUNNABLE)
    8000223c:	498d                	li	s3,3
  asm volatile("csrr %0, sstatus" : "=r" (x) );
    8000223e:	100027f3          	csrr	a5,sstatus
  w_sstatus(r_sstatus() | SSTATUS_SIE);
    80002242:	0027e793          	ori	a5,a5,2
  asm volatile("csrw sstatus, %0" : : "r" (x));
    80002246:	10079073          	csrw	sstatus,a5
    dp_min = 101;
    8000224a:	8ae2                	mv	s5,s8
    top_pri = 0;
    8000224c:	895e                	mv	s2,s7
    for (p = proc; p < &proc[NPROC]; p++)
    8000224e:	0000f497          	auipc	s1,0xf
    80002252:	d5248493          	addi	s1,s1,-686 # 80010fa0 <proc>
    80002256:	bfbd                	j	800021d4 <PBS+0xb2>
          if (top_pri->no_sched == p->no_sched && top_pri->ctime < p->ctime)
    80002258:	03892703          	lw	a4,56(s2)
    8000225c:	5c9c                	lw	a5,56(s1)
    8000225e:	f8f753e3          	bge	a4,a5,800021e4 <PBS+0xc2>
            release(&top_pri->lock);
    80002262:	854a                	mv	a0,s2
    80002264:	fffff097          	auipc	ra,0xfffff
    80002268:	a38080e7          	jalr	-1480(ra) # 80000c9c <release>
            top_pri = p;
    8000226c:	bfa9                	j	800021c6 <PBS+0xa4>

000000008000226e <sched>:
{
    8000226e:	7179                	addi	sp,sp,-48
    80002270:	f406                	sd	ra,40(sp)
    80002272:	f022                	sd	s0,32(sp)
    80002274:	ec26                	sd	s1,24(sp)
    80002276:	e84a                	sd	s2,16(sp)
    80002278:	e44e                	sd	s3,8(sp)
    8000227a:	1800                	addi	s0,sp,48
  struct proc *p = myproc();
    8000227c:	fffff097          	auipc	ra,0xfffff
    80002280:	74a080e7          	jalr	1866(ra) # 800019c6 <myproc>
    80002284:	84aa                	mv	s1,a0
  if (!holding(&p->lock))
    80002286:	fffff097          	auipc	ra,0xfffff
    8000228a:	8d6080e7          	jalr	-1834(ra) # 80000b5c <holding>
    8000228e:	c93d                	beqz	a0,80002304 <sched+0x96>
  asm volatile("mv %0, tp" : "=r" (x) );
    80002290:	8792                	mv	a5,tp
  if (mycpu()->noff != 1)
    80002292:	2781                	sext.w	a5,a5
    80002294:	079e                	slli	a5,a5,0x7
    80002296:	0000f717          	auipc	a4,0xf
    8000229a:	8da70713          	addi	a4,a4,-1830 # 80010b70 <pid_lock>
    8000229e:	97ba                	add	a5,a5,a4
    800022a0:	0a87a703          	lw	a4,168(a5)
    800022a4:	4785                	li	a5,1
    800022a6:	06f71763          	bne	a4,a5,80002314 <sched+0xa6>
  if (p->state == RUNNING)
    800022aa:	4c98                	lw	a4,24(s1)
    800022ac:	4791                	li	a5,4
    800022ae:	06f70b63          	beq	a4,a5,80002324 <sched+0xb6>
  asm volatile("csrr %0, sstatus" : "=r" (x) );
    800022b2:	100027f3          	csrr	a5,sstatus
  return (x & SSTATUS_SIE) != 0;
    800022b6:	8b89                	andi	a5,a5,2
  if (intr_get())
    800022b8:	efb5                	bnez	a5,80002334 <sched+0xc6>
  asm volatile("mv %0, tp" : "=r" (x) );
    800022ba:	8792                	mv	a5,tp
  intena = mycpu()->intena;
    800022bc:	0000f917          	auipc	s2,0xf
    800022c0:	8b490913          	addi	s2,s2,-1868 # 80010b70 <pid_lock>
    800022c4:	2781                	sext.w	a5,a5
    800022c6:	079e                	slli	a5,a5,0x7
    800022c8:	97ca                	add	a5,a5,s2
    800022ca:	0ac7a983          	lw	s3,172(a5)
    800022ce:	8792                	mv	a5,tp
  swtch(&p->context, &mycpu()->context);
    800022d0:	2781                	sext.w	a5,a5
    800022d2:	079e                	slli	a5,a5,0x7
    800022d4:	0000f597          	auipc	a1,0xf
    800022d8:	8d458593          	addi	a1,a1,-1836 # 80010ba8 <cpus+0x8>
    800022dc:	95be                	add	a1,a1,a5
    800022de:	0f048513          	addi	a0,s1,240
    800022e2:	00001097          	auipc	ra,0x1
    800022e6:	a8c080e7          	jalr	-1396(ra) # 80002d6e <swtch>
    800022ea:	8792                	mv	a5,tp
  mycpu()->intena = intena;
    800022ec:	2781                	sext.w	a5,a5
    800022ee:	079e                	slli	a5,a5,0x7
    800022f0:	993e                	add	s2,s2,a5
    800022f2:	0b392623          	sw	s3,172(s2)
}
    800022f6:	70a2                	ld	ra,40(sp)
    800022f8:	7402                	ld	s0,32(sp)
    800022fa:	64e2                	ld	s1,24(sp)
    800022fc:	6942                	ld	s2,16(sp)
    800022fe:	69a2                	ld	s3,8(sp)
    80002300:	6145                	addi	sp,sp,48
    80002302:	8082                	ret
    panic("sched p->lock");
    80002304:	00006517          	auipc	a0,0x6
    80002308:	f2450513          	addi	a0,a0,-220 # 80008228 <digits+0x1e8>
    8000230c:	ffffe097          	auipc	ra,0xffffe
    80002310:	234080e7          	jalr	564(ra) # 80000540 <panic>
    panic("sched locks");
    80002314:	00006517          	auipc	a0,0x6
    80002318:	f2450513          	addi	a0,a0,-220 # 80008238 <digits+0x1f8>
    8000231c:	ffffe097          	auipc	ra,0xffffe
    80002320:	224080e7          	jalr	548(ra) # 80000540 <panic>
    panic("sched running");
    80002324:	00006517          	auipc	a0,0x6
    80002328:	f2450513          	addi	a0,a0,-220 # 80008248 <digits+0x208>
    8000232c:	ffffe097          	auipc	ra,0xffffe
    80002330:	214080e7          	jalr	532(ra) # 80000540 <panic>
    panic("sched interruptible");
    80002334:	00006517          	auipc	a0,0x6
    80002338:	f2450513          	addi	a0,a0,-220 # 80008258 <digits+0x218>
    8000233c:	ffffe097          	auipc	ra,0xffffe
    80002340:	204080e7          	jalr	516(ra) # 80000540 <panic>

0000000080002344 <yield>:
{
    80002344:	1101                	addi	sp,sp,-32
    80002346:	ec06                	sd	ra,24(sp)
    80002348:	e822                	sd	s0,16(sp)
    8000234a:	e426                	sd	s1,8(sp)
    8000234c:	1000                	addi	s0,sp,32
  struct proc *p = myproc();
    8000234e:	fffff097          	auipc	ra,0xfffff
    80002352:	678080e7          	jalr	1656(ra) # 800019c6 <myproc>
    80002356:	84aa                	mv	s1,a0
  acquire(&p->lock);
    80002358:	fffff097          	auipc	ra,0xfffff
    8000235c:	87e080e7          	jalr	-1922(ra) # 80000bd6 <acquire>
  p->state = RUNNABLE;
    80002360:	478d                	li	a5,3
    80002362:	cc9c                	sw	a5,24(s1)
  sched();
    80002364:	00000097          	auipc	ra,0x0
    80002368:	f0a080e7          	jalr	-246(ra) # 8000226e <sched>
  release(&p->lock);
    8000236c:	8526                	mv	a0,s1
    8000236e:	fffff097          	auipc	ra,0xfffff
    80002372:	92e080e7          	jalr	-1746(ra) # 80000c9c <release>
}
    80002376:	60e2                	ld	ra,24(sp)
    80002378:	6442                	ld	s0,16(sp)
    8000237a:	64a2                	ld	s1,8(sp)
    8000237c:	6105                	addi	sp,sp,32
    8000237e:	8082                	ret

0000000080002380 <sleep>:

// Atomically release lock and sleep on chan.
// Reacquires lock when awakened.
void sleep(void *chan, struct spinlock *lk)
{
    80002380:	7179                	addi	sp,sp,-48
    80002382:	f406                	sd	ra,40(sp)
    80002384:	f022                	sd	s0,32(sp)
    80002386:	ec26                	sd	s1,24(sp)
    80002388:	e84a                	sd	s2,16(sp)
    8000238a:	e44e                	sd	s3,8(sp)
    8000238c:	1800                	addi	s0,sp,48
    8000238e:	89aa                	mv	s3,a0
    80002390:	892e                	mv	s2,a1
  struct proc *p = myproc();
    80002392:	fffff097          	auipc	ra,0xfffff
    80002396:	634080e7          	jalr	1588(ra) # 800019c6 <myproc>
    8000239a:	84aa                	mv	s1,a0
  // Once we hold p->lock, we can be
  // guaranteed that we won't miss any wakeup
  // (wakeup locks p->lock),
  // so it's okay to release lk.

  acquire(&p->lock); // DOC: sleeplock1
    8000239c:	fffff097          	auipc	ra,0xfffff
    800023a0:	83a080e7          	jalr	-1990(ra) # 80000bd6 <acquire>
  release(lk);
    800023a4:	854a                	mv	a0,s2
    800023a6:	fffff097          	auipc	ra,0xfffff
    800023aa:	8f6080e7          	jalr	-1802(ra) # 80000c9c <release>

  // Go to sleep.
  p->chan = chan;
    800023ae:	0334b023          	sd	s3,32(s1)
  p->state = SLEEPING;
    800023b2:	4789                	li	a5,2
    800023b4:	cc9c                	sw	a5,24(s1)

  sched();
    800023b6:	00000097          	auipc	ra,0x0
    800023ba:	eb8080e7          	jalr	-328(ra) # 8000226e <sched>

  // Tidy up.
  p->chan = 0;
    800023be:	0204b023          	sd	zero,32(s1)

  // Reacquire original lock.
  release(&p->lock);
    800023c2:	8526                	mv	a0,s1
    800023c4:	fffff097          	auipc	ra,0xfffff
    800023c8:	8d8080e7          	jalr	-1832(ra) # 80000c9c <release>
  acquire(lk);
    800023cc:	854a                	mv	a0,s2
    800023ce:	fffff097          	auipc	ra,0xfffff
    800023d2:	808080e7          	jalr	-2040(ra) # 80000bd6 <acquire>
}
    800023d6:	70a2                	ld	ra,40(sp)
    800023d8:	7402                	ld	s0,32(sp)
    800023da:	64e2                	ld	s1,24(sp)
    800023dc:	6942                	ld	s2,16(sp)
    800023de:	69a2                	ld	s3,8(sp)
    800023e0:	6145                	addi	sp,sp,48
    800023e2:	8082                	ret

00000000800023e4 <wakeup>:

// Wake up all processes sleeping on chan.
// Must be called without any p->lock.
void wakeup(void *chan)
{
    800023e4:	7139                	addi	sp,sp,-64
    800023e6:	fc06                	sd	ra,56(sp)
    800023e8:	f822                	sd	s0,48(sp)
    800023ea:	f426                	sd	s1,40(sp)
    800023ec:	f04a                	sd	s2,32(sp)
    800023ee:	ec4e                	sd	s3,24(sp)
    800023f0:	e852                	sd	s4,16(sp)
    800023f2:	e456                	sd	s5,8(sp)
    800023f4:	0080                	addi	s0,sp,64
    800023f6:	8a2a                	mv	s4,a0
  struct proc *p;

  for (p = proc; p < &proc[NPROC]; p++)
    800023f8:	0000f497          	auipc	s1,0xf
    800023fc:	ba848493          	addi	s1,s1,-1112 # 80010fa0 <proc>
  {
    if (p != myproc())
    {
      acquire(&p->lock);
      if (p->state == SLEEPING && p->chan == chan)
    80002400:	4989                	li	s3,2
      {
        p->state = RUNNABLE;
    80002402:	4a8d                	li	s5,3
  for (p = proc; p < &proc[NPROC]; p++)
    80002404:	00017917          	auipc	s2,0x17
    80002408:	99c90913          	addi	s2,s2,-1636 # 80018da0 <mlfq_q>
    8000240c:	a811                	j	80002420 <wakeup+0x3c>
      }
      release(&p->lock);
    8000240e:	8526                	mv	a0,s1
    80002410:	fffff097          	auipc	ra,0xfffff
    80002414:	88c080e7          	jalr	-1908(ra) # 80000c9c <release>
  for (p = proc; p < &proc[NPROC]; p++)
    80002418:	1f848493          	addi	s1,s1,504
    8000241c:	03248663          	beq	s1,s2,80002448 <wakeup+0x64>
    if (p != myproc())
    80002420:	fffff097          	auipc	ra,0xfffff
    80002424:	5a6080e7          	jalr	1446(ra) # 800019c6 <myproc>
    80002428:	fea488e3          	beq	s1,a0,80002418 <wakeup+0x34>
      acquire(&p->lock);
    8000242c:	8526                	mv	a0,s1
    8000242e:	ffffe097          	auipc	ra,0xffffe
    80002432:	7a8080e7          	jalr	1960(ra) # 80000bd6 <acquire>
      if (p->state == SLEEPING && p->chan == chan)
    80002436:	4c9c                	lw	a5,24(s1)
    80002438:	fd379be3          	bne	a5,s3,8000240e <wakeup+0x2a>
    8000243c:	709c                	ld	a5,32(s1)
    8000243e:	fd4798e3          	bne	a5,s4,8000240e <wakeup+0x2a>
        p->state = RUNNABLE;
    80002442:	0154ac23          	sw	s5,24(s1)
    80002446:	b7e1                	j	8000240e <wakeup+0x2a>
    }
  }
}
    80002448:	70e2                	ld	ra,56(sp)
    8000244a:	7442                	ld	s0,48(sp)
    8000244c:	74a2                	ld	s1,40(sp)
    8000244e:	7902                	ld	s2,32(sp)
    80002450:	69e2                	ld	s3,24(sp)
    80002452:	6a42                	ld	s4,16(sp)
    80002454:	6aa2                	ld	s5,8(sp)
    80002456:	6121                	addi	sp,sp,64
    80002458:	8082                	ret

000000008000245a <reparent>:
{
    8000245a:	7179                	addi	sp,sp,-48
    8000245c:	f406                	sd	ra,40(sp)
    8000245e:	f022                	sd	s0,32(sp)
    80002460:	ec26                	sd	s1,24(sp)
    80002462:	e84a                	sd	s2,16(sp)
    80002464:	e44e                	sd	s3,8(sp)
    80002466:	e052                	sd	s4,0(sp)
    80002468:	1800                	addi	s0,sp,48
    8000246a:	892a                	mv	s2,a0
  for (pp = proc; pp < &proc[NPROC]; pp++)
    8000246c:	0000f497          	auipc	s1,0xf
    80002470:	b3448493          	addi	s1,s1,-1228 # 80010fa0 <proc>
      pp->parent = initproc;
    80002474:	00006a17          	auipc	s4,0x6
    80002478:	484a0a13          	addi	s4,s4,1156 # 800088f8 <initproc>
  for (pp = proc; pp < &proc[NPROC]; pp++)
    8000247c:	00017997          	auipc	s3,0x17
    80002480:	92498993          	addi	s3,s3,-1756 # 80018da0 <mlfq_q>
    80002484:	a029                	j	8000248e <reparent+0x34>
    80002486:	1f848493          	addi	s1,s1,504
    8000248a:	01348d63          	beq	s1,s3,800024a4 <reparent+0x4a>
    if (pp->parent == p)
    8000248e:	64fc                	ld	a5,200(s1)
    80002490:	ff279be3          	bne	a5,s2,80002486 <reparent+0x2c>
      pp->parent = initproc;
    80002494:	000a3503          	ld	a0,0(s4)
    80002498:	e4e8                	sd	a0,200(s1)
      wakeup(initproc);
    8000249a:	00000097          	auipc	ra,0x0
    8000249e:	f4a080e7          	jalr	-182(ra) # 800023e4 <wakeup>
    800024a2:	b7d5                	j	80002486 <reparent+0x2c>
}
    800024a4:	70a2                	ld	ra,40(sp)
    800024a6:	7402                	ld	s0,32(sp)
    800024a8:	64e2                	ld	s1,24(sp)
    800024aa:	6942                	ld	s2,16(sp)
    800024ac:	69a2                	ld	s3,8(sp)
    800024ae:	6a02                	ld	s4,0(sp)
    800024b0:	6145                	addi	sp,sp,48
    800024b2:	8082                	ret

00000000800024b4 <exit>:
{
    800024b4:	7179                	addi	sp,sp,-48
    800024b6:	f406                	sd	ra,40(sp)
    800024b8:	f022                	sd	s0,32(sp)
    800024ba:	ec26                	sd	s1,24(sp)
    800024bc:	e84a                	sd	s2,16(sp)
    800024be:	e44e                	sd	s3,8(sp)
    800024c0:	e052                	sd	s4,0(sp)
    800024c2:	1800                	addi	s0,sp,48
    800024c4:	8a2a                	mv	s4,a0
  struct proc *p = myproc();
    800024c6:	fffff097          	auipc	ra,0xfffff
    800024ca:	500080e7          	jalr	1280(ra) # 800019c6 <myproc>
    800024ce:	89aa                	mv	s3,a0
  if (p == initproc)
    800024d0:	00006797          	auipc	a5,0x6
    800024d4:	4287b783          	ld	a5,1064(a5) # 800088f8 <initproc>
    800024d8:	16050493          	addi	s1,a0,352
    800024dc:	1e050913          	addi	s2,a0,480
    800024e0:	02a79363          	bne	a5,a0,80002506 <exit+0x52>
    panic("init exiting");
    800024e4:	00006517          	auipc	a0,0x6
    800024e8:	d8c50513          	addi	a0,a0,-628 # 80008270 <digits+0x230>
    800024ec:	ffffe097          	auipc	ra,0xffffe
    800024f0:	054080e7          	jalr	84(ra) # 80000540 <panic>
      fileclose(f);
    800024f4:	00003097          	auipc	ra,0x3
    800024f8:	82c080e7          	jalr	-2004(ra) # 80004d20 <fileclose>
      p->ofile[fd] = 0;
    800024fc:	0004b023          	sd	zero,0(s1)
  for (int fd = 0; fd < NOFILE; fd++)
    80002500:	04a1                	addi	s1,s1,8
    80002502:	01248563          	beq	s1,s2,8000250c <exit+0x58>
    if (p->ofile[fd])
    80002506:	6088                	ld	a0,0(s1)
    80002508:	f575                	bnez	a0,800024f4 <exit+0x40>
    8000250a:	bfdd                	j	80002500 <exit+0x4c>
  begin_op();
    8000250c:	00002097          	auipc	ra,0x2
    80002510:	34c080e7          	jalr	844(ra) # 80004858 <begin_op>
  iput(p->cwd);
    80002514:	1e09b503          	ld	a0,480(s3)
    80002518:	00002097          	auipc	ra,0x2
    8000251c:	b2e080e7          	jalr	-1234(ra) # 80004046 <iput>
  end_op();
    80002520:	00002097          	auipc	ra,0x2
    80002524:	3b6080e7          	jalr	950(ra) # 800048d6 <end_op>
  p->cwd = 0;
    80002528:	1e09b023          	sd	zero,480(s3)
  acquire(&wait_lock);
    8000252c:	0000e497          	auipc	s1,0xe
    80002530:	65c48493          	addi	s1,s1,1628 # 80010b88 <wait_lock>
    80002534:	8526                	mv	a0,s1
    80002536:	ffffe097          	auipc	ra,0xffffe
    8000253a:	6a0080e7          	jalr	1696(ra) # 80000bd6 <acquire>
  reparent(p);
    8000253e:	854e                	mv	a0,s3
    80002540:	00000097          	auipc	ra,0x0
    80002544:	f1a080e7          	jalr	-230(ra) # 8000245a <reparent>
  wakeup(p->parent);
    80002548:	0c89b503          	ld	a0,200(s3)
    8000254c:	00000097          	auipc	ra,0x0
    80002550:	e98080e7          	jalr	-360(ra) # 800023e4 <wakeup>
  acquire(&p->lock);
    80002554:	854e                	mv	a0,s3
    80002556:	ffffe097          	auipc	ra,0xffffe
    8000255a:	680080e7          	jalr	1664(ra) # 80000bd6 <acquire>
  p->xstate = status;
    8000255e:	0349a623          	sw	s4,44(s3)
  p->state = ZOMBIE;
    80002562:	4795                	li	a5,5
    80002564:	00f9ac23          	sw	a5,24(s3)
  p->etime = ticks;
    80002568:	00006797          	auipc	a5,0x6
    8000256c:	3987a783          	lw	a5,920(a5) # 80008900 <ticks>
    80002570:	04f9a023          	sw	a5,64(s3)
  release(&wait_lock);
    80002574:	8526                	mv	a0,s1
    80002576:	ffffe097          	auipc	ra,0xffffe
    8000257a:	726080e7          	jalr	1830(ra) # 80000c9c <release>
  sched();
    8000257e:	00000097          	auipc	ra,0x0
    80002582:	cf0080e7          	jalr	-784(ra) # 8000226e <sched>
  panic("zombie exit");
    80002586:	00006517          	auipc	a0,0x6
    8000258a:	cfa50513          	addi	a0,a0,-774 # 80008280 <digits+0x240>
    8000258e:	ffffe097          	auipc	ra,0xffffe
    80002592:	fb2080e7          	jalr	-78(ra) # 80000540 <panic>

0000000080002596 <kill>:

// Kill the process with the given pid.
// The victim won't exit until it tries to return
// to user space (see usertrap() in trap.c).
int kill(int pid)
{
    80002596:	7179                	addi	sp,sp,-48
    80002598:	f406                	sd	ra,40(sp)
    8000259a:	f022                	sd	s0,32(sp)
    8000259c:	ec26                	sd	s1,24(sp)
    8000259e:	e84a                	sd	s2,16(sp)
    800025a0:	e44e                	sd	s3,8(sp)
    800025a2:	1800                	addi	s0,sp,48
    800025a4:	892a                	mv	s2,a0
  struct proc *p;

  for (p = proc; p < &proc[NPROC]; p++)
    800025a6:	0000f497          	auipc	s1,0xf
    800025aa:	9fa48493          	addi	s1,s1,-1542 # 80010fa0 <proc>
    800025ae:	00016997          	auipc	s3,0x16
    800025b2:	7f298993          	addi	s3,s3,2034 # 80018da0 <mlfq_q>
  {
    acquire(&p->lock);
    800025b6:	8526                	mv	a0,s1
    800025b8:	ffffe097          	auipc	ra,0xffffe
    800025bc:	61e080e7          	jalr	1566(ra) # 80000bd6 <acquire>
    if (p->pid == pid)
    800025c0:	589c                	lw	a5,48(s1)
    800025c2:	01278d63          	beq	a5,s2,800025dc <kill+0x46>
        p->state = RUNNABLE;
      }
      release(&p->lock);
      return 0;
    }
    release(&p->lock);
    800025c6:	8526                	mv	a0,s1
    800025c8:	ffffe097          	auipc	ra,0xffffe
    800025cc:	6d4080e7          	jalr	1748(ra) # 80000c9c <release>
  for (p = proc; p < &proc[NPROC]; p++)
    800025d0:	1f848493          	addi	s1,s1,504
    800025d4:	ff3491e3          	bne	s1,s3,800025b6 <kill+0x20>
  }
  return -1;
    800025d8:	557d                	li	a0,-1
    800025da:	a829                	j	800025f4 <kill+0x5e>
      p->killed = 1;
    800025dc:	4785                	li	a5,1
    800025de:	d49c                	sw	a5,40(s1)
      if (p->state == SLEEPING)
    800025e0:	4c98                	lw	a4,24(s1)
    800025e2:	4789                	li	a5,2
    800025e4:	00f70f63          	beq	a4,a5,80002602 <kill+0x6c>
      release(&p->lock);
    800025e8:	8526                	mv	a0,s1
    800025ea:	ffffe097          	auipc	ra,0xffffe
    800025ee:	6b2080e7          	jalr	1714(ra) # 80000c9c <release>
      return 0;
    800025f2:	4501                	li	a0,0
}
    800025f4:	70a2                	ld	ra,40(sp)
    800025f6:	7402                	ld	s0,32(sp)
    800025f8:	64e2                	ld	s1,24(sp)
    800025fa:	6942                	ld	s2,16(sp)
    800025fc:	69a2                	ld	s3,8(sp)
    800025fe:	6145                	addi	sp,sp,48
    80002600:	8082                	ret
        p->state = RUNNABLE;
    80002602:	478d                	li	a5,3
    80002604:	cc9c                	sw	a5,24(s1)
    80002606:	b7cd                	j	800025e8 <kill+0x52>

0000000080002608 <setkilled>:

void setkilled(struct proc *p)
{
    80002608:	1101                	addi	sp,sp,-32
    8000260a:	ec06                	sd	ra,24(sp)
    8000260c:	e822                	sd	s0,16(sp)
    8000260e:	e426                	sd	s1,8(sp)
    80002610:	1000                	addi	s0,sp,32
    80002612:	84aa                	mv	s1,a0
  acquire(&p->lock);
    80002614:	ffffe097          	auipc	ra,0xffffe
    80002618:	5c2080e7          	jalr	1474(ra) # 80000bd6 <acquire>
  p->killed = 1;
    8000261c:	4785                	li	a5,1
    8000261e:	d49c                	sw	a5,40(s1)
  release(&p->lock);
    80002620:	8526                	mv	a0,s1
    80002622:	ffffe097          	auipc	ra,0xffffe
    80002626:	67a080e7          	jalr	1658(ra) # 80000c9c <release>
}
    8000262a:	60e2                	ld	ra,24(sp)
    8000262c:	6442                	ld	s0,16(sp)
    8000262e:	64a2                	ld	s1,8(sp)
    80002630:	6105                	addi	sp,sp,32
    80002632:	8082                	ret

0000000080002634 <killed>:

int killed(struct proc *p)
{
    80002634:	1101                	addi	sp,sp,-32
    80002636:	ec06                	sd	ra,24(sp)
    80002638:	e822                	sd	s0,16(sp)
    8000263a:	e426                	sd	s1,8(sp)
    8000263c:	e04a                	sd	s2,0(sp)
    8000263e:	1000                	addi	s0,sp,32
    80002640:	84aa                	mv	s1,a0
  int k;

  acquire(&p->lock);
    80002642:	ffffe097          	auipc	ra,0xffffe
    80002646:	594080e7          	jalr	1428(ra) # 80000bd6 <acquire>
  k = p->killed;
    8000264a:	0284a903          	lw	s2,40(s1)
  release(&p->lock);
    8000264e:	8526                	mv	a0,s1
    80002650:	ffffe097          	auipc	ra,0xffffe
    80002654:	64c080e7          	jalr	1612(ra) # 80000c9c <release>
  return k;
}
    80002658:	854a                	mv	a0,s2
    8000265a:	60e2                	ld	ra,24(sp)
    8000265c:	6442                	ld	s0,16(sp)
    8000265e:	64a2                	ld	s1,8(sp)
    80002660:	6902                	ld	s2,0(sp)
    80002662:	6105                	addi	sp,sp,32
    80002664:	8082                	ret

0000000080002666 <wait>:
{
    80002666:	715d                	addi	sp,sp,-80
    80002668:	e486                	sd	ra,72(sp)
    8000266a:	e0a2                	sd	s0,64(sp)
    8000266c:	fc26                	sd	s1,56(sp)
    8000266e:	f84a                	sd	s2,48(sp)
    80002670:	f44e                	sd	s3,40(sp)
    80002672:	f052                	sd	s4,32(sp)
    80002674:	ec56                	sd	s5,24(sp)
    80002676:	e85a                	sd	s6,16(sp)
    80002678:	e45e                	sd	s7,8(sp)
    8000267a:	e062                	sd	s8,0(sp)
    8000267c:	0880                	addi	s0,sp,80
    8000267e:	8b2a                	mv	s6,a0
  struct proc *p = myproc();
    80002680:	fffff097          	auipc	ra,0xfffff
    80002684:	346080e7          	jalr	838(ra) # 800019c6 <myproc>
    80002688:	892a                	mv	s2,a0
  acquire(&wait_lock);
    8000268a:	0000e517          	auipc	a0,0xe
    8000268e:	4fe50513          	addi	a0,a0,1278 # 80010b88 <wait_lock>
    80002692:	ffffe097          	auipc	ra,0xffffe
    80002696:	544080e7          	jalr	1348(ra) # 80000bd6 <acquire>
    havekids = 0;
    8000269a:	4b81                	li	s7,0
        if (pp->state == ZOMBIE)
    8000269c:	4a15                	li	s4,5
        havekids = 1;
    8000269e:	4a85                	li	s5,1
    for (pp = proc; pp < &proc[NPROC]; pp++)
    800026a0:	00016997          	auipc	s3,0x16
    800026a4:	70098993          	addi	s3,s3,1792 # 80018da0 <mlfq_q>
    sleep(p, &wait_lock); // DOC: wait-sleep
    800026a8:	0000ec17          	auipc	s8,0xe
    800026ac:	4e0c0c13          	addi	s8,s8,1248 # 80010b88 <wait_lock>
    havekids = 0;
    800026b0:	875e                	mv	a4,s7
    for (pp = proc; pp < &proc[NPROC]; pp++)
    800026b2:	0000f497          	auipc	s1,0xf
    800026b6:	8ee48493          	addi	s1,s1,-1810 # 80010fa0 <proc>
    800026ba:	a0bd                	j	80002728 <wait+0xc2>
          pid = pp->pid;
    800026bc:	0304a983          	lw	s3,48(s1)
          if (addr != 0 && copyout(p->pagetable, addr, (char *)&pp->xstate,
    800026c0:	000b0e63          	beqz	s6,800026dc <wait+0x76>
    800026c4:	4691                	li	a3,4
    800026c6:	02c48613          	addi	a2,s1,44
    800026ca:	85da                	mv	a1,s6
    800026cc:	0e093503          	ld	a0,224(s2)
    800026d0:	fffff097          	auipc	ra,0xfffff
    800026d4:	fb6080e7          	jalr	-74(ra) # 80001686 <copyout>
    800026d8:	02054563          	bltz	a0,80002702 <wait+0x9c>
          freeproc(pp);
    800026dc:	8526                	mv	a0,s1
    800026de:	fffff097          	auipc	ra,0xfffff
    800026e2:	49a080e7          	jalr	1178(ra) # 80001b78 <freeproc>
          release(&pp->lock);
    800026e6:	8526                	mv	a0,s1
    800026e8:	ffffe097          	auipc	ra,0xffffe
    800026ec:	5b4080e7          	jalr	1460(ra) # 80000c9c <release>
          release(&wait_lock);
    800026f0:	0000e517          	auipc	a0,0xe
    800026f4:	49850513          	addi	a0,a0,1176 # 80010b88 <wait_lock>
    800026f8:	ffffe097          	auipc	ra,0xffffe
    800026fc:	5a4080e7          	jalr	1444(ra) # 80000c9c <release>
          return pid;
    80002700:	a0b5                	j	8000276c <wait+0x106>
            release(&pp->lock);
    80002702:	8526                	mv	a0,s1
    80002704:	ffffe097          	auipc	ra,0xffffe
    80002708:	598080e7          	jalr	1432(ra) # 80000c9c <release>
            release(&wait_lock);
    8000270c:	0000e517          	auipc	a0,0xe
    80002710:	47c50513          	addi	a0,a0,1148 # 80010b88 <wait_lock>
    80002714:	ffffe097          	auipc	ra,0xffffe
    80002718:	588080e7          	jalr	1416(ra) # 80000c9c <release>
            return -1;
    8000271c:	59fd                	li	s3,-1
    8000271e:	a0b9                	j	8000276c <wait+0x106>
    for (pp = proc; pp < &proc[NPROC]; pp++)
    80002720:	1f848493          	addi	s1,s1,504
    80002724:	03348463          	beq	s1,s3,8000274c <wait+0xe6>
      if (pp->parent == p)
    80002728:	64fc                	ld	a5,200(s1)
    8000272a:	ff279be3          	bne	a5,s2,80002720 <wait+0xba>
        acquire(&pp->lock);
    8000272e:	8526                	mv	a0,s1
    80002730:	ffffe097          	auipc	ra,0xffffe
    80002734:	4a6080e7          	jalr	1190(ra) # 80000bd6 <acquire>
        if (pp->state == ZOMBIE)
    80002738:	4c9c                	lw	a5,24(s1)
    8000273a:	f94781e3          	beq	a5,s4,800026bc <wait+0x56>
        release(&pp->lock);
    8000273e:	8526                	mv	a0,s1
    80002740:	ffffe097          	auipc	ra,0xffffe
    80002744:	55c080e7          	jalr	1372(ra) # 80000c9c <release>
        havekids = 1;
    80002748:	8756                	mv	a4,s5
    8000274a:	bfd9                	j	80002720 <wait+0xba>
    if (!havekids || killed(p))
    8000274c:	c719                	beqz	a4,8000275a <wait+0xf4>
    8000274e:	854a                	mv	a0,s2
    80002750:	00000097          	auipc	ra,0x0
    80002754:	ee4080e7          	jalr	-284(ra) # 80002634 <killed>
    80002758:	c51d                	beqz	a0,80002786 <wait+0x120>
      release(&wait_lock);
    8000275a:	0000e517          	auipc	a0,0xe
    8000275e:	42e50513          	addi	a0,a0,1070 # 80010b88 <wait_lock>
    80002762:	ffffe097          	auipc	ra,0xffffe
    80002766:	53a080e7          	jalr	1338(ra) # 80000c9c <release>
      return -1;
    8000276a:	59fd                	li	s3,-1
}
    8000276c:	854e                	mv	a0,s3
    8000276e:	60a6                	ld	ra,72(sp)
    80002770:	6406                	ld	s0,64(sp)
    80002772:	74e2                	ld	s1,56(sp)
    80002774:	7942                	ld	s2,48(sp)
    80002776:	79a2                	ld	s3,40(sp)
    80002778:	7a02                	ld	s4,32(sp)
    8000277a:	6ae2                	ld	s5,24(sp)
    8000277c:	6b42                	ld	s6,16(sp)
    8000277e:	6ba2                	ld	s7,8(sp)
    80002780:	6c02                	ld	s8,0(sp)
    80002782:	6161                	addi	sp,sp,80
    80002784:	8082                	ret
    sleep(p, &wait_lock); // DOC: wait-sleep
    80002786:	85e2                	mv	a1,s8
    80002788:	854a                	mv	a0,s2
    8000278a:	00000097          	auipc	ra,0x0
    8000278e:	bf6080e7          	jalr	-1034(ra) # 80002380 <sleep>
    havekids = 0;
    80002792:	bf39                	j	800026b0 <wait+0x4a>

0000000080002794 <either_copyout>:

// Copy to either a user address, or kernel address,
// depending on usr_dst.
// Returns 0 on success, -1 on error.
int either_copyout(int user_dst, uint64 dst, void *src, uint64 len)
{
    80002794:	7179                	addi	sp,sp,-48
    80002796:	f406                	sd	ra,40(sp)
    80002798:	f022                	sd	s0,32(sp)
    8000279a:	ec26                	sd	s1,24(sp)
    8000279c:	e84a                	sd	s2,16(sp)
    8000279e:	e44e                	sd	s3,8(sp)
    800027a0:	e052                	sd	s4,0(sp)
    800027a2:	1800                	addi	s0,sp,48
    800027a4:	84aa                	mv	s1,a0
    800027a6:	892e                	mv	s2,a1
    800027a8:	89b2                	mv	s3,a2
    800027aa:	8a36                	mv	s4,a3
  struct proc *p = myproc();
    800027ac:	fffff097          	auipc	ra,0xfffff
    800027b0:	21a080e7          	jalr	538(ra) # 800019c6 <myproc>
  if (user_dst)
    800027b4:	c08d                	beqz	s1,800027d6 <either_copyout+0x42>
  {
    return copyout(p->pagetable, dst, src, len);
    800027b6:	86d2                	mv	a3,s4
    800027b8:	864e                	mv	a2,s3
    800027ba:	85ca                	mv	a1,s2
    800027bc:	7168                	ld	a0,224(a0)
    800027be:	fffff097          	auipc	ra,0xfffff
    800027c2:	ec8080e7          	jalr	-312(ra) # 80001686 <copyout>
  else
  {
    memmove((char *)dst, src, len);
    return 0;
  }
}
    800027c6:	70a2                	ld	ra,40(sp)
    800027c8:	7402                	ld	s0,32(sp)
    800027ca:	64e2                	ld	s1,24(sp)
    800027cc:	6942                	ld	s2,16(sp)
    800027ce:	69a2                	ld	s3,8(sp)
    800027d0:	6a02                	ld	s4,0(sp)
    800027d2:	6145                	addi	sp,sp,48
    800027d4:	8082                	ret
    memmove((char *)dst, src, len);
    800027d6:	000a061b          	sext.w	a2,s4
    800027da:	85ce                	mv	a1,s3
    800027dc:	854a                	mv	a0,s2
    800027de:	ffffe097          	auipc	ra,0xffffe
    800027e2:	562080e7          	jalr	1378(ra) # 80000d40 <memmove>
    return 0;
    800027e6:	8526                	mv	a0,s1
    800027e8:	bff9                	j	800027c6 <either_copyout+0x32>

00000000800027ea <either_copyin>:

// Copy from either a user address, or kernel address,
// depending on usr_src.
// Returns 0 on success, -1 on error.
int either_copyin(void *dst, int user_src, uint64 src, uint64 len)
{
    800027ea:	7179                	addi	sp,sp,-48
    800027ec:	f406                	sd	ra,40(sp)
    800027ee:	f022                	sd	s0,32(sp)
    800027f0:	ec26                	sd	s1,24(sp)
    800027f2:	e84a                	sd	s2,16(sp)
    800027f4:	e44e                	sd	s3,8(sp)
    800027f6:	e052                	sd	s4,0(sp)
    800027f8:	1800                	addi	s0,sp,48
    800027fa:	892a                	mv	s2,a0
    800027fc:	84ae                	mv	s1,a1
    800027fe:	89b2                	mv	s3,a2
    80002800:	8a36                	mv	s4,a3
  struct proc *p = myproc();
    80002802:	fffff097          	auipc	ra,0xfffff
    80002806:	1c4080e7          	jalr	452(ra) # 800019c6 <myproc>
  if (user_src)
    8000280a:	c08d                	beqz	s1,8000282c <either_copyin+0x42>
  {
    return copyin(p->pagetable, dst, src, len);
    8000280c:	86d2                	mv	a3,s4
    8000280e:	864e                	mv	a2,s3
    80002810:	85ca                	mv	a1,s2
    80002812:	7168                	ld	a0,224(a0)
    80002814:	fffff097          	auipc	ra,0xfffff
    80002818:	efe080e7          	jalr	-258(ra) # 80001712 <copyin>
  else
  {
    memmove(dst, (char *)src, len);
    return 0;
  }
}
    8000281c:	70a2                	ld	ra,40(sp)
    8000281e:	7402                	ld	s0,32(sp)
    80002820:	64e2                	ld	s1,24(sp)
    80002822:	6942                	ld	s2,16(sp)
    80002824:	69a2                	ld	s3,8(sp)
    80002826:	6a02                	ld	s4,0(sp)
    80002828:	6145                	addi	sp,sp,48
    8000282a:	8082                	ret
    memmove(dst, (char *)src, len);
    8000282c:	000a061b          	sext.w	a2,s4
    80002830:	85ce                	mv	a1,s3
    80002832:	854a                	mv	a0,s2
    80002834:	ffffe097          	auipc	ra,0xffffe
    80002838:	50c080e7          	jalr	1292(ra) # 80000d40 <memmove>
    return 0;
    8000283c:	8526                	mv	a0,s1
    8000283e:	bff9                	j	8000281c <either_copyin+0x32>

0000000080002840 <procdump>:

// Print a process listing to console.  For debugging.
// Runs when user types ^P on console.
// No lock to avoid wedging a stuck machine further.
void procdump(void)
{
    80002840:	715d                	addi	sp,sp,-80
    80002842:	e486                	sd	ra,72(sp)
    80002844:	e0a2                	sd	s0,64(sp)
    80002846:	fc26                	sd	s1,56(sp)
    80002848:	f84a                	sd	s2,48(sp)
    8000284a:	f44e                	sd	s3,40(sp)
    8000284c:	f052                	sd	s4,32(sp)
    8000284e:	ec56                	sd	s5,24(sp)
    80002850:	e85a                	sd	s6,16(sp)
    80002852:	e45e                	sd	s7,8(sp)
    80002854:	0880                	addi	s0,sp,80
      [RUNNING] "run   ",
      [ZOMBIE] "zombie"};
  struct proc *p;
  char *state;

  printf("\n");
    80002856:	00006517          	auipc	a0,0x6
    8000285a:	88250513          	addi	a0,a0,-1918 # 800080d8 <digits+0x98>
    8000285e:	ffffe097          	auipc	ra,0xffffe
    80002862:	d2c080e7          	jalr	-724(ra) # 8000058a <printf>
  for (p = proc; p < &proc[NPROC]; p++)
    80002866:	0000f497          	auipc	s1,0xf
    8000286a:	92248493          	addi	s1,s1,-1758 # 80011188 <proc+0x1e8>
    8000286e:	00016917          	auipc	s2,0x16
    80002872:	71a90913          	addi	s2,s2,1818 # 80018f88 <mlfq_q+0x1e8>
  {
    if (p->state == UNUSED)
      continue;
    if (p->state >= 0 && p->state < NELEM(states) && states[p->state])
    80002876:	4b15                	li	s6,5
      state = states[p->state];
    else
      state = "???";
    80002878:	00006997          	auipc	s3,0x6
    8000287c:	a1898993          	addi	s3,s3,-1512 # 80008290 <digits+0x250>
    printf("%d %s %s", p->pid, state, p->name);
    80002880:	00006a97          	auipc	s5,0x6
    80002884:	a18a8a93          	addi	s5,s5,-1512 # 80008298 <digits+0x258>
    printf("\n");
    80002888:	00006a17          	auipc	s4,0x6
    8000288c:	850a0a13          	addi	s4,s4,-1968 # 800080d8 <digits+0x98>
    if (p->state >= 0 && p->state < NELEM(states) && states[p->state])
    80002890:	00006b97          	auipc	s7,0x6
    80002894:	a48b8b93          	addi	s7,s7,-1464 # 800082d8 <states.0>
    80002898:	a00d                	j	800028ba <procdump+0x7a>
    printf("%d %s %s", p->pid, state, p->name);
    8000289a:	e486a583          	lw	a1,-440(a3)
    8000289e:	8556                	mv	a0,s5
    800028a0:	ffffe097          	auipc	ra,0xffffe
    800028a4:	cea080e7          	jalr	-790(ra) # 8000058a <printf>
    printf("\n");
    800028a8:	8552                	mv	a0,s4
    800028aa:	ffffe097          	auipc	ra,0xffffe
    800028ae:	ce0080e7          	jalr	-800(ra) # 8000058a <printf>
  for (p = proc; p < &proc[NPROC]; p++)
    800028b2:	1f848493          	addi	s1,s1,504
    800028b6:	03248263          	beq	s1,s2,800028da <procdump+0x9a>
    if (p->state == UNUSED)
    800028ba:	86a6                	mv	a3,s1
    800028bc:	e304a783          	lw	a5,-464(s1)
    800028c0:	dbed                	beqz	a5,800028b2 <procdump+0x72>
      state = "???";
    800028c2:	864e                	mv	a2,s3
    if (p->state >= 0 && p->state < NELEM(states) && states[p->state])
    800028c4:	fcfb6be3          	bltu	s6,a5,8000289a <procdump+0x5a>
    800028c8:	02079713          	slli	a4,a5,0x20
    800028cc:	01d75793          	srli	a5,a4,0x1d
    800028d0:	97de                	add	a5,a5,s7
    800028d2:	6390                	ld	a2,0(a5)
    800028d4:	f279                	bnez	a2,8000289a <procdump+0x5a>
      state = "???";
    800028d6:	864e                	mv	a2,s3
    800028d8:	b7c9                	j	8000289a <procdump+0x5a>
  }
}
    800028da:	60a6                	ld	ra,72(sp)
    800028dc:	6406                	ld	s0,64(sp)
    800028de:	74e2                	ld	s1,56(sp)
    800028e0:	7942                	ld	s2,48(sp)
    800028e2:	79a2                	ld	s3,40(sp)
    800028e4:	7a02                	ld	s4,32(sp)
    800028e6:	6ae2                	ld	s5,24(sp)
    800028e8:	6b42                	ld	s6,16(sp)
    800028ea:	6ba2                	ld	s7,8(sp)
    800028ec:	6161                	addi	sp,sp,80
    800028ee:	8082                	ret

00000000800028f0 <pinit>:
// }

#define RAND_MAX 32767

void pinit(void)
{
    800028f0:	1141                	addi	sp,sp,-16
    800028f2:	e422                	sd	s0,8(sp)
    800028f4:	0800                	addi	s0,sp,16
  for (int i = 0; i < NMLFQ; i++)
    800028f6:	00016797          	auipc	a5,0x16
    800028fa:	4aa78793          	addi	a5,a5,1194 # 80018da0 <mlfq_q>
    800028fe:	00017717          	auipc	a4,0x17
    80002902:	f4270713          	addi	a4,a4,-190 # 80019840 <tickslock>
  {
    mlfq_q[i].size = 0;
    80002906:	2007ac23          	sw	zero,536(a5)
    mlfq_q[i].head = 0;
    8000290a:	0007b023          	sd	zero,0(a5)
    mlfq_q[i].tail = 0;
    8000290e:	0007b423          	sd	zero,8(a5)
  for (int i = 0; i < NMLFQ; i++)
    80002912:	22078793          	addi	a5,a5,544
    80002916:	fee798e3          	bne	a5,a4,80002906 <pinit+0x16>
  }
}
    8000291a:	6422                	ld	s0,8(sp)
    8000291c:	0141                	addi	sp,sp,16
    8000291e:	8082                	ret

0000000080002920 <random_at_most>:

int random_at_most(int n)
{
    80002920:	1141                	addi	sp,sp,-16
    80002922:	e422                	sd	s0,8(sp)
    80002924:	0800                	addi	s0,sp,16
  // generate a random number less than n
  unsigned int num_bins = (unsigned int)n + 1;
    80002926:	0015071b          	addiw	a4,a0,1
  unsigned int num_rand = (unsigned int)RAND_MAX + 1;
  unsigned int bin_size = num_rand / num_bins;
    8000292a:	67a1                	lui	a5,0x8
    8000292c:	02e7d53b          	divuw	a0,a5,a4
  unsigned int defect = num_rand % num_bins;
    80002930:	02e7f6bb          	remuw	a3,a5,a4

  int x;
  do
  {
    x = ticks;
    80002934:	00006717          	auipc	a4,0x6
    80002938:	fcc72703          	lw	a4,-52(a4) # 80008900 <ticks>
  }
  // This is carefully written not to overflow
  while (num_rand - defect <= (unsigned int)x);
    8000293c:	9f95                	subw	a5,a5,a3
    8000293e:	00f77063          	bgeu	a4,a5,8000293e <random_at_most+0x1e>

  // Truncated division is intentional
  return x / bin_size;
}
    80002942:	02a7553b          	divuw	a0,a4,a0
    80002946:	6422                	ld	s0,8(sp)
    80002948:	0141                	addi	sp,sp,16
    8000294a:	8082                	ret

000000008000294c <LBS>:
{
    8000294c:	7159                	addi	sp,sp,-112
    8000294e:	f486                	sd	ra,104(sp)
    80002950:	f0a2                	sd	s0,96(sp)
    80002952:	eca6                	sd	s1,88(sp)
    80002954:	e8ca                	sd	s2,80(sp)
    80002956:	e4ce                	sd	s3,72(sp)
    80002958:	e0d2                	sd	s4,64(sp)
    8000295a:	fc56                	sd	s5,56(sp)
    8000295c:	f85a                	sd	s6,48(sp)
    8000295e:	f45e                	sd	s7,40(sp)
    80002960:	f062                	sd	s8,32(sp)
    80002962:	ec66                	sd	s9,24(sp)
    80002964:	e86a                	sd	s10,16(sp)
    80002966:	e46e                	sd	s11,8(sp)
    80002968:	1880                	addi	s0,sp,112
    8000296a:	8792                	mv	a5,tp
  int id = r_tp();
    8000296c:	2781                	sext.w	a5,a5
  c->proc = 0;
    8000296e:	00779693          	slli	a3,a5,0x7
    80002972:	0000e717          	auipc	a4,0xe
    80002976:	1fe70713          	addi	a4,a4,510 # 80010b70 <pid_lock>
    8000297a:	9736                	add	a4,a4,a3
    8000297c:	02073823          	sd	zero,48(a4)
          swtch(&c->context, &prize->context);
    80002980:	0000e717          	auipc	a4,0xe
    80002984:	22870713          	addi	a4,a4,552 # 80010ba8 <cpus+0x8>
    80002988:	00e68db3          	add	s11,a3,a4
    total_tickets = 0;
    8000298c:	4a81                	li	s5,0
    for (p = proc; p < &proc[NPROC]; p++)
    8000298e:	00016997          	auipc	s3,0x16
    80002992:	41298993          	addi	s3,s3,1042 # 80018da0 <mlfq_q>
          c->proc = prize;
    80002996:	0000eb17          	auipc	s6,0xe
    8000299a:	1dab0b13          	addi	s6,s6,474 # 80010b70 <pid_lock>
    8000299e:	9b36                	add	s6,s6,a3
    800029a0:	a8f9                	j	80002a7e <LBS+0x132>
      release(&p->lock);
    800029a2:	8526                	mv	a0,s1
    800029a4:	ffffe097          	auipc	ra,0xffffe
    800029a8:	2f8080e7          	jalr	760(ra) # 80000c9c <release>
    for (p = proc; p < &proc[NPROC]; p++)
    800029ac:	1f848493          	addi	s1,s1,504
    800029b0:	01348e63          	beq	s1,s3,800029cc <LBS+0x80>
      acquire(&p->lock);
    800029b4:	8526                	mv	a0,s1
    800029b6:	ffffe097          	auipc	ra,0xffffe
    800029ba:	220080e7          	jalr	544(ra) # 80000bd6 <acquire>
      if (p->state == RUNNABLE)
    800029be:	4c9c                	lw	a5,24(s1)
    800029c0:	ff2791e3          	bne	a5,s2,800029a2 <LBS+0x56>
        total_tickets += p->tickets;
    800029c4:	78bc                	ld	a5,112(s1)
    800029c6:	01478a3b          	addw	s4,a5,s4
    800029ca:	bfe1                	j	800029a2 <LBS+0x56>
    if (total_tickets > 0)
    800029cc:	01404e63          	bgtz	s4,800029e8 <LBS+0x9c>
  asm volatile("csrr %0, sstatus" : "=r" (x) );
    800029d0:	100027f3          	csrr	a5,sstatus
  w_sstatus(r_sstatus() | SSTATUS_SIE);
    800029d4:	0027e793          	ori	a5,a5,2
  asm volatile("csrw sstatus, %0" : : "r" (x));
    800029d8:	10079073          	csrw	sstatus,a5
    total_tickets = 0;
    800029dc:	8a56                	mv	s4,s5
    for (p = proc; p < &proc[NPROC]; p++)
    800029de:	0000e497          	auipc	s1,0xe
    800029e2:	5c248493          	addi	s1,s1,1474 # 80010fa0 <proc>
    800029e6:	b7f9                	j	800029b4 <LBS+0x68>
      ticket = random_at_most(total_tickets);
    800029e8:	8552                	mv	a0,s4
    800029ea:	00000097          	auipc	ra,0x0
    800029ee:	f36080e7          	jalr	-202(ra) # 80002920 <random_at_most>
    800029f2:	8caa                	mv	s9,a0
      for (p = proc; p < &proc[NPROC]; p++)
    800029f4:	0000ea17          	auipc	s4,0xe
    800029f8:	5aca0a13          	addi	s4,s4,1452 # 80010fa0 <proc>
    800029fc:	0000e497          	auipc	s1,0xe
    80002a00:	79c48493          	addi	s1,s1,1948 # 80011198 <proc+0x1f8>
    prize = 0;
    80002a04:	8d56                	mv	s10,s5
    80002a06:	a821                	j	80002a1e <LBS+0xd2>
        release(&p->lock);
    80002a08:	855e                	mv	a0,s7
    80002a0a:	ffffe097          	auipc	ra,0xffffe
    80002a0e:	292080e7          	jalr	658(ra) # 80000c9c <release>
      for (p = proc; p < &proc[NPROC]; p++)
    80002a12:	073c7863          	bgeu	s8,s3,80002a82 <LBS+0x136>
    80002a16:	1f8a0a13          	addi	s4,s4,504
    80002a1a:	1f848493          	addi	s1,s1,504
    80002a1e:	8bd2                	mv	s7,s4
        acquire(&p->lock);
    80002a20:	8552                	mv	a0,s4
    80002a22:	ffffe097          	auipc	ra,0xffffe
    80002a26:	1b4080e7          	jalr	436(ra) # 80000bd6 <acquire>
        if (p->state == RUNNABLE)
    80002a2a:	8c26                	mv	s8,s1
    80002a2c:	e204a783          	lw	a5,-480(s1)
    80002a30:	fd279ce3          	bne	a5,s2,80002a08 <LBS+0xbc>
          if (temp_sum >= ticket && prize == 0)
    80002a34:	e784b783          	ld	a5,-392(s1)
    80002a38:	fd97e8e3          	bltu	a5,s9,80002a08 <LBS+0xbc>
    80002a3c:	040d0663          	beqz	s10,80002a88 <LBS+0x13c>
        release(&p->lock);
    80002a40:	8552                	mv	a0,s4
    80002a42:	ffffe097          	auipc	ra,0xffffe
    80002a46:	25a080e7          	jalr	602(ra) # 80000c9c <release>
      for (p = proc; p < &proc[NPROC]; p++)
    80002a4a:	fd34e6e3          	bltu	s1,s3,80002a16 <LBS+0xca>
        if (prize->state == RUNNABLE)
    80002a4e:	018d2703          	lw	a4,24(s10)
    80002a52:	478d                	li	a5,3
    80002a54:	02f71063          	bne	a4,a5,80002a74 <LBS+0x128>
          prize->state = RUNNING;
    80002a58:	4791                	li	a5,4
    80002a5a:	00fd2c23          	sw	a5,24(s10)
          c->proc = prize;
    80002a5e:	03ab3823          	sd	s10,48(s6)
          swtch(&c->context, &prize->context);
    80002a62:	0f0d0593          	addi	a1,s10,240
    80002a66:	856e                	mv	a0,s11
    80002a68:	00000097          	auipc	ra,0x0
    80002a6c:	306080e7          	jalr	774(ra) # 80002d6e <swtch>
          c->proc = 0;
    80002a70:	020b3823          	sd	zero,48(s6)
        release(&prize->lock);
    80002a74:	856a                	mv	a0,s10
    80002a76:	ffffe097          	auipc	ra,0xffffe
    80002a7a:	226080e7          	jalr	550(ra) # 80000c9c <release>
      if (p->state == RUNNABLE)
    80002a7e:	490d                	li	s2,3
    80002a80:	bf81                	j	800029d0 <LBS+0x84>
      if (prize != 0)
    80002a82:	f40d07e3          	beqz	s10,800029d0 <LBS+0x84>
    80002a86:	b7e1                	j	80002a4e <LBS+0x102>
      for (p = proc; p < &proc[NPROC]; p++)
    80002a88:	0134f463          	bgeu	s1,s3,80002a90 <LBS+0x144>
    80002a8c:	8d5e                	mv	s10,s7
    80002a8e:	b761                	j	80002a16 <LBS+0xca>
    80002a90:	8d52                	mv	s10,s4
    80002a92:	bf75                	j	80002a4e <LBS+0x102>

0000000080002a94 <push>:

void push(struct Queue *array, struct proc *p)
{
    80002a94:	1141                	addi	sp,sp,-16
    80002a96:	e422                	sd	s0,8(sp)
    80002a98:	0800                	addi	s0,sp,16
  array->array[array->tail] = p;
    80002a9a:	651c                	ld	a5,8(a0)
    80002a9c:	00278713          	addi	a4,a5,2 # 8002 <_entry-0x7fff7ffe>
    80002aa0:	070e                	slli	a4,a4,0x3
    80002aa2:	972a                	add	a4,a4,a0
    80002aa4:	e30c                	sd	a1,0(a4)
  array->tail = (array->tail + 1) % NPROC;
    80002aa6:	0785                	addi	a5,a5,1
    80002aa8:	03f7f793          	andi	a5,a5,63
    80002aac:	e51c                	sd	a5,8(a0)

  if (array->tail == NPROC + 1)
  {
    array->tail = 0;
  }
  else if (array->tail > array->head)
    80002aae:	6118                	ld	a4,0(a0)
    80002ab0:	00f77563          	bgeu	a4,a5,80002aba <push+0x26>
  {
    array->size = array->tail - array->head;
    80002ab4:	9f99                	subw	a5,a5,a4
    80002ab6:	20f52c23          	sw	a5,536(a0)
  }

  array->size++;
    80002aba:	21852783          	lw	a5,536(a0)
    80002abe:	2785                	addiw	a5,a5,1
    80002ac0:	20f52c23          	sw	a5,536(a0)
}
    80002ac4:	6422                	ld	s0,8(sp)
    80002ac6:	0141                	addi	sp,sp,16
    80002ac8:	8082                	ret

0000000080002aca <pop>:

void pop(struct Queue *array)
{
    80002aca:	1141                	addi	sp,sp,-16
    80002acc:	e422                	sd	s0,8(sp)
    80002ace:	0800                	addi	s0,sp,16
  array->head++;
    80002ad0:	611c                	ld	a5,0(a0)
    80002ad2:	0785                	addi	a5,a5,1

  if (array->head == NPROC + 1)
    80002ad4:	04100713          	li	a4,65
    80002ad8:	00e78b63          	beq	a5,a4,80002aee <pop+0x24>
    80002adc:	e11c                	sd	a5,0(a0)
  {
    array->head = 0;
  }

  array->size--;
    80002ade:	21852783          	lw	a5,536(a0)
    80002ae2:	37fd                	addiw	a5,a5,-1
    80002ae4:	20f52c23          	sw	a5,536(a0)
}
    80002ae8:	6422                	ld	s0,8(sp)
    80002aea:	0141                	addi	sp,sp,16
    80002aec:	8082                	ret
    array->head = 0;
    80002aee:	4781                	li	a5,0
    80002af0:	b7f5                	j	80002adc <pop+0x12>

0000000080002af2 <front>:

struct proc *front(struct Queue *array)
{
    80002af2:	1141                	addi	sp,sp,-16
    80002af4:	e422                	sd	s0,8(sp)
    80002af6:	0800                	addi	s0,sp,16
  if (array->head == array->tail)
    80002af8:	611c                	ld	a5,0(a0)
    80002afa:	6518                	ld	a4,8(a0)
    80002afc:	00e78963          	beq	a5,a4,80002b0e <front+0x1c>
  {
    return 0;
  }

  return array->array[array->head];
    80002b00:	0789                	addi	a5,a5,2
    80002b02:	078e                	slli	a5,a5,0x3
    80002b04:	953e                	add	a0,a0,a5
    80002b06:	6108                	ld	a0,0(a0)
}
    80002b08:	6422                	ld	s0,8(sp)
    80002b0a:	0141                	addi	sp,sp,16
    80002b0c:	8082                	ret
    return 0;
    80002b0e:	4501                	li	a0,0
    80002b10:	bfe5                	j	80002b08 <front+0x16>

0000000080002b12 <waitx>:

int waitx(uint64 addr, uint* wtime, uint* rtime)
		
{
    80002b12:	711d                	addi	sp,sp,-96
    80002b14:	ec86                	sd	ra,88(sp)
    80002b16:	e8a2                	sd	s0,80(sp)
    80002b18:	e4a6                	sd	s1,72(sp)
    80002b1a:	e0ca                	sd	s2,64(sp)
    80002b1c:	fc4e                	sd	s3,56(sp)
    80002b1e:	f852                	sd	s4,48(sp)
    80002b20:	f456                	sd	s5,40(sp)
    80002b22:	f05a                	sd	s6,32(sp)
    80002b24:	ec5e                	sd	s7,24(sp)
    80002b26:	e862                	sd	s8,16(sp)
    80002b28:	e466                	sd	s9,8(sp)
    80002b2a:	e06a                	sd	s10,0(sp)
    80002b2c:	1080                	addi	s0,sp,96
    80002b2e:	8b2a                	mv	s6,a0
    80002b30:	8bae                	mv	s7,a1
    80002b32:	8c32                	mv	s8,a2
		
  struct proc *np;
		
  int havekids, pid;
		
  struct proc *p = myproc();
    80002b34:	fffff097          	auipc	ra,0xfffff
    80002b38:	e92080e7          	jalr	-366(ra) # 800019c6 <myproc>
    80002b3c:	892a                	mv	s2,a0
		

		
  acquire(&wait_lock);
    80002b3e:	0000e517          	auipc	a0,0xe
    80002b42:	04a50513          	addi	a0,a0,74 # 80010b88 <wait_lock>
    80002b46:	ffffe097          	auipc	ra,0xffffe
    80002b4a:	090080e7          	jalr	144(ra) # 80000bd6 <acquire>
		
  for(;;){
		
    // Scan through table looking for exited children.
		
    havekids = 0;
    80002b4e:	4c81                	li	s9,0
		

		
        havekids = 1;
		
        if(np->state == ZOMBIE){
    80002b50:	4a15                	li	s4,5
        havekids = 1;
    80002b52:	4a85                	li	s5,1
    for(np = proc; np < &proc[NPROC]; np++){
    80002b54:	00016997          	auipc	s3,0x16
    80002b58:	24c98993          	addi	s3,s3,588 # 80018da0 <mlfq_q>
		
    }
		
    // Wait for a child to exit.
		
    sleep(p, &wait_lock);  //DOC: wait-sleep
    80002b5c:	0000ed17          	auipc	s10,0xe
    80002b60:	02cd0d13          	addi	s10,s10,44 # 80010b88 <wait_lock>
    havekids = 0;
    80002b64:	8766                	mv	a4,s9
    for(np = proc; np < &proc[NPROC]; np++){
    80002b66:	0000e497          	auipc	s1,0xe
    80002b6a:	43a48493          	addi	s1,s1,1082 # 80010fa0 <proc>
    80002b6e:	a041                	j	80002bee <waitx+0xdc>
          pid = np->pid;
    80002b70:	0304a983          	lw	s3,48(s1)
          *rtime = np->rtime;
    80002b74:	5cd8                	lw	a4,60(s1)
    80002b76:	00ec2023          	sw	a4,0(s8)
          *wtime = np->etime - np->ctime - np->rtime;
    80002b7a:	40bc                	lw	a5,64(s1)
    80002b7c:	9f99                	subw	a5,a5,a4
    80002b7e:	5c98                	lw	a4,56(s1)
    80002b80:	9f99                	subw	a5,a5,a4
    80002b82:	00fba023          	sw	a5,0(s7)
          if(addr != 0 && copyout(p->pagetable, addr, (char *)&np->xstate,
    80002b86:	000b0e63          	beqz	s6,80002ba2 <waitx+0x90>
    80002b8a:	4691                	li	a3,4
    80002b8c:	02c48613          	addi	a2,s1,44
    80002b90:	85da                	mv	a1,s6
    80002b92:	0e093503          	ld	a0,224(s2)
    80002b96:	fffff097          	auipc	ra,0xfffff
    80002b9a:	af0080e7          	jalr	-1296(ra) # 80001686 <copyout>
    80002b9e:	02054563          	bltz	a0,80002bc8 <waitx+0xb6>
          freeproc(np);
    80002ba2:	8526                	mv	a0,s1
    80002ba4:	fffff097          	auipc	ra,0xfffff
    80002ba8:	fd4080e7          	jalr	-44(ra) # 80001b78 <freeproc>
          release(&np->lock);
    80002bac:	8526                	mv	a0,s1
    80002bae:	ffffe097          	auipc	ra,0xffffe
    80002bb2:	0ee080e7          	jalr	238(ra) # 80000c9c <release>
          release(&wait_lock);
    80002bb6:	0000e517          	auipc	a0,0xe
    80002bba:	fd250513          	addi	a0,a0,-46 # 80010b88 <wait_lock>
    80002bbe:	ffffe097          	auipc	ra,0xffffe
    80002bc2:	0de080e7          	jalr	222(ra) # 80000c9c <release>
          return pid;
    80002bc6:	a09d                	j	80002c2c <waitx+0x11a>
            release(&np->lock);
    80002bc8:	8526                	mv	a0,s1
    80002bca:	ffffe097          	auipc	ra,0xffffe
    80002bce:	0d2080e7          	jalr	210(ra) # 80000c9c <release>
            release(&wait_lock);
    80002bd2:	0000e517          	auipc	a0,0xe
    80002bd6:	fb650513          	addi	a0,a0,-74 # 80010b88 <wait_lock>
    80002bda:	ffffe097          	auipc	ra,0xffffe
    80002bde:	0c2080e7          	jalr	194(ra) # 80000c9c <release>
            return -1;
    80002be2:	59fd                	li	s3,-1
    80002be4:	a0a1                	j	80002c2c <waitx+0x11a>
    for(np = proc; np < &proc[NPROC]; np++){
    80002be6:	1f848493          	addi	s1,s1,504
